
kernel8.elf:     file format elf64-littleaarch64
kernel8.elf
architecture: aarch64, flags 0x00000112:
EXEC_P, HAS_SYMS, D_PAGED
start address 0x0000000000080000

Program Header:
    LOAD off    0x0000000000010000 vaddr 0x0000000000080000 paddr 0x0000000000080000 align 2**16
         filesz 0x0000000000001568 memsz 0x0000000000001578 flags rwx
private flags = 0x0:

Sections:
Idx Name          Size      VMA               LMA               File off  Algn
  0 .text         00001520  0000000000080000  0000000000080000  00010000  2**11
                  CONTENTS, ALLOC, LOAD, READONLY, CODE
  1 .rodata       00000048  0000000000081520  0000000000081520  00011520  2**3
                  CONTENTS, ALLOC, LOAD, READONLY, DATA
  2 .bss          00000010  0000000000081568  0000000000081568  00011568  2**2
                  ALLOC
SYMBOL TABLE:
0000000000080000 l    d  .text	0000000000000000 .text
0000000000081520 l    d  .rodata	0000000000000000 .rodata
0000000000081568 l    d  .bss	0000000000000000 .bss
0000000000000000 l    df *ABS*	0000000000000000 boot.o
0000000000080078 l       .text	0000000000000000 el1_entry
0000000000000000 l    df *ABS*	0000000000000000 io.c
0000000000000000 l    df *ABS*	0000000000000000 string.c
0000000000000000 l    df *ABS*	0000000000000000 irq.c
0000000000000000 l    df *ABS*	0000000000000000 kernel.c
0000000000000000 l    df *ABS*	0000000000000000 irqentry.o
0000000000080f84 l       .text	0000000000000000 sync_invalid_el1t
0000000000080fd8 l       .text	0000000000000000 irq_invalid_el1t
000000000008102c l       .text	0000000000000000 fiq_invalid_el1t
0000000000081080 l       .text	0000000000000000 error_invalid_el1t
00000000000810d4 l       .text	0000000000000000 sync_invalid_el1h
0000000000081470 l       .text	0000000000000000 handle_el1_irq
0000000000081128 l       .text	0000000000000000 fiq_invalid_el1h
000000000008117c l       .text	0000000000000000 error_invalid_el1h
00000000000811d0 l       .text	0000000000000000 sync_invalid_el0_64
0000000000081224 l       .text	0000000000000000 irq_invalid_el0_64
0000000000081278 l       .text	0000000000000000 fiq_invalid_el0_64
00000000000812cc l       .text	0000000000000000 error_invalid_el0_64
0000000000081320 l       .text	0000000000000000 sync_invalid_el0_32
0000000000081374 l       .text	0000000000000000 irq_invalid_el0_32
00000000000813c8 l       .text	0000000000000000 fiq_invalid_el0_32
000000000008141c l       .text	0000000000000000 error_invalid_el0_32
0000000000000000 l    df *ABS*	0000000000000000 utils.o
0000000000080450 g     F .text	0000000000000030 lenstr
0000000000080260 g     F .text	0000000000000064 gpio_function
0000000000081564 g     O .rodata	0000000000000004 timer1_int
0000000000081510 g       .text	0000000000000000 irq_enable
00000000000803d0 g     F .text	0000000000000014 uart_isWriteByteReady
0000000000081569 g       .bss	0000000000000000 __bss_size
00000000000803e4 g     F .text	000000000000001c uart_writeByteBlockingActual
0000000000081504 g       .text	0000000000000000 irq_init_vectors
0000000000081500 g       .text	0000000000000000 err_hang
00000000000802c4 g     F .text	000000000000007c gpio_useAsAlt5
0000000000080544 g     F .text	000000000000003c handle_irq
00000000000804c4 g     F .text	0000000000000058 getDecStr
0000000000081578 g       .bss	0000000000000000 __bss_end
00000000000800f0 g     F .text	0000000000000008 mmio_write
0000000000080520 g     F .text	0000000000000014 enable_interrupt_controller
0000000000080580 g     F .text	0000000000000024 timer_init
0000000000080534 g     F .text	0000000000000010 disable_interrupt_controller
0000000000080340 g     F .text	000000000000008c uart_init
0000000000080480 g     F .text	0000000000000044 cmpstr
0000000000080110 g     F .text	000000000000005c gpio_call
0000000000080000 g       .text	0000000000000000 _start
0000000000081574 g     O .bss	0000000000000004 num_timer_handle_timer_called
0000000000081518 g       .text	0000000000000000 irq_disable
0000000000081570 g       .bss	0000000000000000 __bss_start
0000000000080620 g     F .text	0000000000000050 main
00000000000805a4 g     F .text	0000000000000078 handle_timer_1
0000000000080100 g     F .text	0000000000000008 mmio_read
0000000000080400 g     F .text	0000000000000050 uart_writeText
0000000000081570 g     O .bss	0000000000000004 timer1_val
0000000000080210 g     F .text	000000000000004c gpio_pull
0000000000081578 g       .bss	0000000000000000 _end
00000000000801c0 g     F .text	000000000000004c gpio_clear
0000000000080800 g       .text	0000000000000000 vectors
0000000000080170 g     F .text	000000000000004c gpio_set



Disassembly of section .text:

0000000000080000 <_start>:
   80000:	58000540 	[38;5;142mldr[0m	[38;5;27mx0[0m, [38;5;134m800a8[0m <[38;5;40mel1_entry[0m[38;5;134m+0x[0m[38;5;134m30[0m>
   80004:	b900001f 	[38;5;142mstr[0m	[38;5;27mwzr[0m, [[38;5;27mx0[0m]
   80008:	52b00001 	[38;5;142mmov[0m	[38;5;27mw1[0m, [38;5;134m#0x80000000            [0m[38;5;250m	// #-2147483648[0m
   8000c:	58000525 	[38;5;142mldr[0m	[38;5;27mx5[0m, [38;5;134m800b0[0m <[38;5;40mel1_entry[0m[38;5;134m+0x[0m[38;5;134m38[0m>
   80010:	580004c6 	[38;5;142mldr[0m	[38;5;27mx6[0m, [38;5;134m800a8[0m <[38;5;40mel1_entry[0m[38;5;134m+0x[0m[38;5;134m30[0m>
   80014:	cb0600a5 	[38;5;142msub[0m	[38;5;27mx5[0m, [38;5;27mx5[0m, [38;5;27mx6[0m
   80018:	b8256801 	[38;5;142mstr[0m	[38;5;27mw1[0m, [[38;5;27mx0[0m, [38;5;27mx5[0m]
   8001c:	580004e0 	[38;5;142mldr[0m	[38;5;27mx0[0m, [38;5;134m800b8[0m <[38;5;40mel1_entry[0m[38;5;134m+0x[0m[38;5;134m40[0m>
   80020:	d51be000 	[38;5;142mmsr[0m	[38;5;27mcntfrq_el0[0m, [38;5;27mx0[0m
   80024:	d51ce07f 	[38;5;142mmsr[0m	[38;5;27mcntvoff_el2[0m, [38;5;27mxzr[0m
   80028:	d53800a1 	[38;5;142mmrs[0m	[38;5;27mx1[0m, [38;5;27mmpidr_el1[0m
   8002c:	92400421 	[38;5;142mand[0m	[38;5;27mx1[0m, [38;5;27mx1[0m, [38;5;134m#0x3[0m
   80030:	b4000061 	[38;5;142mcbz[0m	[38;5;27mx1[0m, [38;5;134m8003c[0m <[38;5;40m_start[0m[38;5;134m+0x[0m[38;5;134m3c[0m>
   80034:	d503205f 	[38;5;142mwfe[0m
   80038:	17ffffff 	[38;5;142mb[0m	[38;5;134m80034[0m <[38;5;40m_start[0m[38;5;134m+0x[0m[38;5;134m34[0m>
   8003c:	d2867fe0 	[38;5;142mmov[0m	[38;5;27mx0[0m, [38;5;134m#0x33ff                [0m[38;5;250m	// #13311[0m
   80040:	d51e1140 	[38;5;142mmsr[0m	[38;5;27mcptr_el3[0m, [38;5;27mx0[0m
   80044:	d2a00600 	[38;5;142mmov[0m	[38;5;27mx0[0m, [38;5;134m#0x300000              [0m[38;5;250m	// #3145728[0m
   80048:	d5181040 	[38;5;142mmsr[0m	[38;5;27mcpacr_el1[0m, [38;5;27mx0[0m
   8004c:	580003a0 	[38;5;142mldr[0m	[38;5;27mx0[0m, [38;5;134m800c0[0m <[38;5;40mel1_entry[0m[38;5;134m+0x[0m[38;5;134m48[0m>
   80050:	d5181000 	[38;5;142mmsr[0m	[38;5;27msctlr_el1[0m, [38;5;27mx0[0m
   80054:	580003a0 	[38;5;142mldr[0m	[38;5;27mx0[0m, [38;5;134m800c8[0m <[38;5;40mel1_entry[0m[38;5;134m+0x[0m[38;5;134m50[0m>
   80058:	d51c1100 	[38;5;142mmsr[0m	[38;5;27mhcr_el2[0m, [38;5;27mx0[0m
   8005c:	580003a0 	[38;5;142mldr[0m	[38;5;27mx0[0m, [38;5;134m800d0[0m <[38;5;40mel1_entry[0m[38;5;134m+0x[0m[38;5;134m58[0m>
   80060:	d51e1100 	[38;5;142mmsr[0m	[38;5;27mscr_el3[0m, [38;5;27mx0[0m
   80064:	580003a0 	[38;5;142mldr[0m	[38;5;27mx0[0m, [38;5;134m800d8[0m <[38;5;40mel1_entry[0m[38;5;134m+0x[0m[38;5;134m60[0m>
   80068:	d51e4000 	[38;5;142mmsr[0m	[38;5;27mspsr_el3[0m, [38;5;27mx0[0m
   8006c:	10000060 	[38;5;142madr[0m	[38;5;27mx0[0m, [38;5;134m80078[0m <[38;5;40mel1_entry[0m>
   80070:	d51e4020 	[38;5;142mmsr[0m	[38;5;27melr_el3[0m, [38;5;27mx0[0m
   80074:	d69f03e0 	[38;5;142meret[0m

0000000000080078 <el1_entry>:
   80078:	58000341 	[38;5;142mldr[0m	[38;5;27mx1[0m, [38;5;134m800e0[0m <[38;5;40mel1_entry[0m[38;5;134m+0x[0m[38;5;134m68[0m>
   8007c:	9100003f 	[38;5;142mmov[0m	[38;5;27msp[0m, [38;5;27mx1[0m
   80080:	58000341 	[38;5;142mldr[0m	[38;5;27mx1[0m, [38;5;134m800e8[0m <[38;5;40mel1_entry[0m[38;5;134m+0x[0m[38;5;134m70[0m>
   80084:	180000e2 	[38;5;142mldr[0m	[38;5;27mw2[0m, [38;5;134m800a0[0m <[38;5;40mel1_entry[0m[38;5;134m+0x[0m[38;5;134m28[0m>
   80088:	34000082 	[38;5;142mcbz[0m	[38;5;27mw2[0m, [38;5;134m80098[0m <[38;5;40mel1_entry[0m[38;5;134m+0x[0m[38;5;134m20[0m>
   8008c:	f800843f 	[38;5;142mstr[0m	[38;5;27mxzr[0m, [[38;5;27mx1[0m], [38;5;134m#8[0m
   80090:	51000442 	[38;5;142msub[0m	[38;5;27mw2[0m, [38;5;27mw2[0m, [38;5;134m#0x1[0m
   80094:	35ffffa2 	[38;5;142mcbnz[0m	[38;5;27mw2[0m, [38;5;134m80088[0m <[38;5;40mel1_entry[0m[38;5;134m+0x[0m[38;5;134m10[0m>
   80098:	94000162 	[38;5;142mbl[0m	[38;5;134m80620[0m <[38;5;40mmain[0m>
   8009c:	17ffffe6 	[38;5;142mb[0m	[38;5;134m80034[0m <[38;5;40m_start[0m[38;5;134m+0x[0m[38;5;134m34[0m>
   800a0:	00081569 	[38;5;142m.word	[0m[38;5;134m0x00081569[0m
   800a4:	00000000 	[38;5;142mudf[0m	[38;5;134m#0[0m
   800a8:	ff800000 	[38;5;142m.word	[0m[38;5;134m0xff800000[0m
   800ac:	00000000 	[38;5;142m.word	[0m[38;5;134m0x00000000[0m
   800b0:	ff800008 	[38;5;142m.word	[0m[38;5;134m0xff800008[0m
   800b4:	00000000 	[38;5;142m.word	[0m[38;5;134m0x00000000[0m
   800b8:	0337f980 	[38;5;142m.word	[0m[38;5;134m0x0337f980[0m
   800bc:	00000000 	[38;5;142m.word	[0m[38;5;134m0x00000000[0m
   800c0:	30d01804 	[38;5;142m.word	[0m[38;5;134m0x30d01804[0m
   800c4:	00000000 	[38;5;142m.word	[0m[38;5;134m0x00000000[0m
   800c8:	80000000 	[38;5;142m.word	[0m[38;5;134m0x80000000[0m
   800cc:	00000000 	[38;5;142m.word	[0m[38;5;134m0x00000000[0m
   800d0:	00000431 	[38;5;142m.word	[0m[38;5;134m0x00000431[0m
   800d4:	00000000 	[38;5;142m.word	[0m[38;5;134m0x00000000[0m
   800d8:	000001c5 	[38;5;142m.word	[0m[38;5;134m0x000001c5[0m
   800dc:	00000000 	[38;5;142m.word	[0m[38;5;134m0x00000000[0m
   800e0:	00080000 	[38;5;142m.word	[0m[38;5;134m0x00080000[0m
   800e4:	00000000 	[38;5;142m.word	[0m[38;5;134m0x00000000[0m
   800e8:	00081570 	[38;5;142m.word	[0m[38;5;134m0x00081570[0m
   800ec:	00000000 	[38;5;142m.word	[0m[38;5;134m0x00000000[0m

00000000000800f0 <mmio_write>:
   800f0:	b9000001 	[38;5;142mstr[0m	[38;5;27mw1[0m, [[38;5;27mx0[0m]
   800f4:	d65f03c0 	[38;5;142mret[0m
   800f8:	d503201f 	[38;5;142mnop[0m
   800fc:	d503201f 	[38;5;142mnop[0m

0000000000080100 <mmio_read>:
   80100:	b9400000 	[38;5;142mldr[0m	[38;5;27mw0[0m, [[38;5;27mx0[0m]
   80104:	d65f03c0 	[38;5;142mret[0m
   80108:	d503201f 	[38;5;142mnop[0m
   8010c:	d503201f 	[38;5;142mnop[0m

0000000000080110 <gpio_call>:
   80110:	52800027 	[38;5;142mmov[0m	[38;5;27mw7[0m, [38;5;134m#0x1                   [0m[38;5;250m	// #1[0m
   80114:	2a0003e6 	[38;5;142mmov[0m	[38;5;27mw6[0m, [38;5;27mw0[0m
   80118:	1ac320e5 	[38;5;142mlsl[0m	[38;5;27mw5[0m, [38;5;27mw7[0m, [38;5;27mw3[0m
   8011c:	510004a5 	[38;5;142msub[0m	[38;5;27mw5[0m, [38;5;27mw5[0m, [38;5;134m#0x1[0m
   80120:	6b0100bf 	[38;5;142mcmp[0m	[38;5;27mw5[0m, [38;5;27mw1[0m
   80124:	7a442002 	[38;5;142mccmp[0m	[38;5;27mw0[0m, [38;5;27mw4[0m, [38;5;134m#0x2[0m, [38;5;142mcs[0m[38;5;250m	// cs = hs, nlast[0m
   80128:	52800000 	[38;5;142mmov[0m	[38;5;27mw0[0m, [38;5;134m#0x0                   [0m[38;5;250m	// #0[0m
   8012c:	54000049 	[38;5;142mb.ls[0m	[38;5;134m80134[0m <[38;5;40mgpio_call[0m[38;5;134m+0x[0m[38;5;134m24[0m>[38;5;250m  // b.plast[0m
   80130:	d65f03c0 	[38;5;142mret[0m
   80134:	52800404 	[38;5;142mmov[0m	[38;5;27mw4[0m, [38;5;134m#0x20                  [0m[38;5;250m	// #32[0m
   80138:	2a0703e0 	[38;5;142mmov[0m	[38;5;27mw0[0m, [38;5;27mw7[0m
   8013c:	1ac30884 	[38;5;142mudiv[0m	[38;5;27mw4[0m, [38;5;27mw4[0m, [38;5;27mw3[0m
   80140:	1ac408c7 	[38;5;142mudiv[0m	[38;5;27mw7[0m, [38;5;27mw6[0m, [38;5;27mw4[0m
   80144:	1b0498e4 	[38;5;142mmsub[0m	[38;5;27mw4[0m, [38;5;27mw7[0m, [38;5;27mw4[0m, [38;5;27mw6[0m
   80148:	0b070842 	[38;5;142madd[0m	[38;5;27mw2[0m, [38;5;27mw2[0m, [38;5;27mw7[0m, [38;5;142mlsl[0m [38;5;134m#2[0m
   8014c:	b9400046 	[38;5;142mldr[0m	[38;5;27mw6[0m, [[38;5;27mx2[0m]
   80150:	1b037c83 	[38;5;142mmul[0m	[38;5;27mw3[0m, [38;5;27mw4[0m, [38;5;27mw3[0m
   80154:	1ac320a5 	[38;5;142mlsl[0m	[38;5;27mw5[0m, [38;5;27mw5[0m, [38;5;27mw3[0m
   80158:	0a2500c5 	[38;5;142mbic[0m	[38;5;27mw5[0m, [38;5;27mw6[0m, [38;5;27mw5[0m
   8015c:	1ac32021 	[38;5;142mlsl[0m	[38;5;27mw1[0m, [38;5;27mw1[0m, [38;5;27mw3[0m
   80160:	2a050021 	[38;5;142morr[0m	[38;5;27mw1[0m, [38;5;27mw1[0m, [38;5;27mw5[0m
   80164:	b9000041 	[38;5;142mstr[0m	[38;5;27mw1[0m, [[38;5;27mx2[0m]
   80168:	d65f03c0 	[38;5;142mret[0m
   8016c:	d503201f 	[38;5;142mnop[0m

0000000000080170 <gpio_set>:
   80170:	7100d41f 	[38;5;142mcmp[0m	[38;5;27mw0[0m, [38;5;134m#0x35[0m
   80174:	7a419822 	[38;5;142mccmp[0m	[38;5;27mw1[0m, [38;5;134m#0x1[0m, [38;5;134m#0x2[0m, [38;5;142mls[0m[38;5;250m	// ls = plast[0m
   80178:	54000069 	[38;5;142mb.ls[0m	[38;5;134m80184[0m <[38;5;40mgpio_set[0m[38;5;134m+0x[0m[38;5;134m14[0m>[38;5;250m  // b.plast[0m
   8017c:	52800000 	[38;5;142mmov[0m	[38;5;27mw0[0m, [38;5;134m#0x0                   [0m[38;5;250m	// #0[0m
   80180:	d65f03c0 	[38;5;142mret[0m
   80184:	53057c03 	[38;5;142mlsr[0m	[38;5;27mw3[0m, [38;5;27mw0[0m, [38;5;134m#5[0m
   80188:	52800385 	[38;5;142mmov[0m	[38;5;27mw5[0m, [38;5;134m#0x1c                  [0m[38;5;250m	// #28[0m
   8018c:	72bfc405 	[38;5;142mmovk[0m	[38;5;27mw5[0m, [38;5;134m#0xfe20[0m, [38;5;142mlsl[0m [38;5;134m#16[0m
   80190:	12001002 	[38;5;142mand[0m	[38;5;27mw2[0m, [38;5;27mw0[0m, [38;5;134m#0x1f[0m
   80194:	0b0308a3 	[38;5;142madd[0m	[38;5;27mw3[0m, [38;5;27mw5[0m, [38;5;27mw3[0m, [38;5;142mlsl[0m [38;5;134m#2[0m
   80198:	52800024 	[38;5;142mmov[0m	[38;5;27mw4[0m, [38;5;134m#0x1                   [0m[38;5;250m	// #1[0m
   8019c:	1ac22021 	[38;5;142mlsl[0m	[38;5;27mw1[0m, [38;5;27mw1[0m, [38;5;27mw2[0m
   801a0:	2a0403e0 	[38;5;142mmov[0m	[38;5;27mw0[0m, [38;5;27mw4[0m
   801a4:	1ac22084 	[38;5;142mlsl[0m	[38;5;27mw4[0m, [38;5;27mw4[0m, [38;5;27mw2[0m
   801a8:	b9400062 	[38;5;142mldr[0m	[38;5;27mw2[0m, [[38;5;27mx3[0m]
   801ac:	0a240044 	[38;5;142mbic[0m	[38;5;27mw4[0m, [38;5;27mw2[0m, [38;5;27mw4[0m
   801b0:	2a040021 	[38;5;142morr[0m	[38;5;27mw1[0m, [38;5;27mw1[0m, [38;5;27mw4[0m
   801b4:	b9000061 	[38;5;142mstr[0m	[38;5;27mw1[0m, [[38;5;27mx3[0m]
   801b8:	d65f03c0 	[38;5;142mret[0m
   801bc:	d503201f 	[38;5;142mnop[0m

00000000000801c0 <gpio_clear>:
   801c0:	7100d41f 	[38;5;142mcmp[0m	[38;5;27mw0[0m, [38;5;134m#0x35[0m
   801c4:	7a419822 	[38;5;142mccmp[0m	[38;5;27mw1[0m, [38;5;134m#0x1[0m, [38;5;134m#0x2[0m, [38;5;142mls[0m[38;5;250m	// ls = plast[0m
   801c8:	54000069 	[38;5;142mb.ls[0m	[38;5;134m801d4[0m <[38;5;40mgpio_clear[0m[38;5;134m+0x[0m[38;5;134m14[0m>[38;5;250m  // b.plast[0m
   801cc:	52800000 	[38;5;142mmov[0m	[38;5;27mw0[0m, [38;5;134m#0x0                   [0m[38;5;250m	// #0[0m
   801d0:	d65f03c0 	[38;5;142mret[0m
   801d4:	53057c03 	[38;5;142mlsr[0m	[38;5;27mw3[0m, [38;5;27mw0[0m, [38;5;134m#5[0m
   801d8:	52800505 	[38;5;142mmov[0m	[38;5;27mw5[0m, [38;5;134m#0x28                  [0m[38;5;250m	// #40[0m
   801dc:	72bfc405 	[38;5;142mmovk[0m	[38;5;27mw5[0m, [38;5;134m#0xfe20[0m, [38;5;142mlsl[0m [38;5;134m#16[0m
   801e0:	12001002 	[38;5;142mand[0m	[38;5;27mw2[0m, [38;5;27mw0[0m, [38;5;134m#0x1f[0m
   801e4:	0b0308a3 	[38;5;142madd[0m	[38;5;27mw3[0m, [38;5;27mw5[0m, [38;5;27mw3[0m, [38;5;142mlsl[0m [38;5;134m#2[0m
   801e8:	52800024 	[38;5;142mmov[0m	[38;5;27mw4[0m, [38;5;134m#0x1                   [0m[38;5;250m	// #1[0m
   801ec:	1ac22021 	[38;5;142mlsl[0m	[38;5;27mw1[0m, [38;5;27mw1[0m, [38;5;27mw2[0m
   801f0:	2a0403e0 	[38;5;142mmov[0m	[38;5;27mw0[0m, [38;5;27mw4[0m
   801f4:	1ac22084 	[38;5;142mlsl[0m	[38;5;27mw4[0m, [38;5;27mw4[0m, [38;5;27mw2[0m
   801f8:	b9400062 	[38;5;142mldr[0m	[38;5;27mw2[0m, [[38;5;27mx3[0m]
   801fc:	0a240044 	[38;5;142mbic[0m	[38;5;27mw4[0m, [38;5;27mw2[0m, [38;5;27mw4[0m
   80200:	2a040021 	[38;5;142morr[0m	[38;5;27mw1[0m, [38;5;27mw1[0m, [38;5;27mw4[0m
   80204:	b9000061 	[38;5;142mstr[0m	[38;5;27mw1[0m, [[38;5;27mx3[0m]
   80208:	d65f03c0 	[38;5;142mret[0m
   8020c:	d503201f 	[38;5;142mnop[0m

0000000000080210 <gpio_pull>:
   80210:	7100d41f 	[38;5;142mcmp[0m	[38;5;27mw0[0m, [38;5;134m#0x35[0m
   80214:	7a439822 	[38;5;142mccmp[0m	[38;5;27mw1[0m, [38;5;134m#0x3[0m, [38;5;134m#0x2[0m, [38;5;142mls[0m[38;5;250m	// ls = plast[0m
   80218:	54000069 	[38;5;142mb.ls[0m	[38;5;134m80224[0m <[38;5;40mgpio_pull[0m[38;5;134m+0x[0m[38;5;134m14[0m>[38;5;250m  // b.plast[0m
   8021c:	52800000 	[38;5;142mmov[0m	[38;5;27mw0[0m, [38;5;134m#0x0                   [0m[38;5;250m	// #0[0m
   80220:	d65f03c0 	[38;5;142mret[0m
   80224:	53047c03 	[38;5;142mlsr[0m	[38;5;27mw3[0m, [38;5;27mw0[0m, [38;5;134m#4[0m
   80228:	52801c85 	[38;5;142mmov[0m	[38;5;27mw5[0m, [38;5;134m#0xe4                  [0m[38;5;250m	// #228[0m
   8022c:	72bfc405 	[38;5;142mmovk[0m	[38;5;27mw5[0m, [38;5;134m#0xfe20[0m, [38;5;142mlsl[0m [38;5;134m#16[0m
   80230:	531f0c02 	[38;5;142mubfiz[0m	[38;5;27mw2[0m, [38;5;27mw0[0m, [38;5;134m#1[0m, [38;5;134m#4[0m
   80234:	0b0308a3 	[38;5;142madd[0m	[38;5;27mw3[0m, [38;5;27mw5[0m, [38;5;27mw3[0m, [38;5;142mlsl[0m [38;5;134m#2[0m
   80238:	52800064 	[38;5;142mmov[0m	[38;5;27mw4[0m, [38;5;134m#0x3                   [0m[38;5;250m	// #3[0m
   8023c:	1ac22084 	[38;5;142mlsl[0m	[38;5;27mw4[0m, [38;5;27mw4[0m, [38;5;27mw2[0m
   80240:	52800020 	[38;5;142mmov[0m	[38;5;27mw0[0m, [38;5;134m#0x1                   [0m[38;5;250m	// #1[0m
   80244:	1ac22021 	[38;5;142mlsl[0m	[38;5;27mw1[0m, [38;5;27mw1[0m, [38;5;27mw2[0m
   80248:	b9400062 	[38;5;142mldr[0m	[38;5;27mw2[0m, [[38;5;27mx3[0m]
   8024c:	0a240042 	[38;5;142mbic[0m	[38;5;27mw2[0m, [38;5;27mw2[0m, [38;5;27mw4[0m
   80250:	2a020021 	[38;5;142morr[0m	[38;5;27mw1[0m, [38;5;27mw1[0m, [38;5;27mw2[0m
   80254:	b9000061 	[38;5;142mstr[0m	[38;5;27mw1[0m, [[38;5;27mx3[0m]
   80258:	d65f03c0 	[38;5;142mret[0m
   8025c:	d503201f 	[38;5;142mnop[0m

0000000000080260 <gpio_function>:
   80260:	7100d41f 	[38;5;142mcmp[0m	[38;5;27mw0[0m, [38;5;134m#0x35[0m
   80264:	2a0003e3 	[38;5;142mmov[0m	[38;5;27mw3[0m, [38;5;27mw0[0m
   80268:	7a479822 	[38;5;142mccmp[0m	[38;5;27mw1[0m, [38;5;134m#0x7[0m, [38;5;134m#0x2[0m, [38;5;142mls[0m[38;5;250m	// ls = plast[0m
   8026c:	52800000 	[38;5;142mmov[0m	[38;5;27mw0[0m, [38;5;134m#0x0                   [0m[38;5;250m	// #0[0m
   80270:	54000049 	[38;5;142mb.ls[0m	[38;5;134m80278[0m <[38;5;40mgpio_function[0m[38;5;134m+0x[0m[38;5;134m18[0m>[38;5;250m  // b.plast[0m
   80274:	d65f03c0 	[38;5;142mret[0m
   80278:	529999a2 	[38;5;142mmov[0m	[38;5;27mw2[0m, [38;5;134m#0xcccd                [0m[38;5;250m	// #52429[0m
   8027c:	52bfc406 	[38;5;142mmov[0m	[38;5;27mw6[0m, [38;5;134m#0xfe200000            [0m[38;5;250m	// #-31457280[0m
   80280:	72b99982 	[38;5;142mmovk[0m	[38;5;27mw2[0m, [38;5;134m#0xcccc[0m, [38;5;142mlsl[0m [38;5;134m#16[0m
   80284:	528000e5 	[38;5;142mmov[0m	[38;5;27mw5[0m, [38;5;134m#0x7                   [0m[38;5;250m	// #7[0m
   80288:	52800020 	[38;5;142mmov[0m	[38;5;27mw0[0m, [38;5;134m#0x1                   [0m[38;5;250m	// #1[0m
   8028c:	9ba27c62 	[38;5;142mumull[0m	[38;5;27mx2[0m, [38;5;27mw3[0m, [38;5;27mw2[0m
   80290:	d363fc42 	[38;5;142mlsr[0m	[38;5;27mx2[0m, [38;5;27mx2[0m, [38;5;134m#35[0m
   80294:	531e7444 	[38;5;142mlsl[0m	[38;5;27mw4[0m, [38;5;27mw2[0m, [38;5;134m#2[0m
   80298:	0b020082 	[38;5;142madd[0m	[38;5;27mw2[0m, [38;5;27mw4[0m, [38;5;27mw2[0m
   8029c:	0b060084 	[38;5;142madd[0m	[38;5;27mw4[0m, [38;5;27mw4[0m, [38;5;27mw6[0m
   802a0:	4b020462 	[38;5;142msub[0m	[38;5;27mw2[0m, [38;5;27mw3[0m, [38;5;27mw2[0m, [38;5;142mlsl[0m [38;5;134m#1[0m
   802a4:	b9400086 	[38;5;142mldr[0m	[38;5;27mw6[0m, [[38;5;27mx4[0m]
   802a8:	0b020442 	[38;5;142madd[0m	[38;5;27mw2[0m, [38;5;27mw2[0m, [38;5;27mw2[0m, [38;5;142mlsl[0m [38;5;134m#1[0m
   802ac:	1ac220a3 	[38;5;142mlsl[0m	[38;5;27mw3[0m, [38;5;27mw5[0m, [38;5;27mw2[0m
   802b0:	0a2300c3 	[38;5;142mbic[0m	[38;5;27mw3[0m, [38;5;27mw6[0m, [38;5;27mw3[0m
   802b4:	1ac22021 	[38;5;142mlsl[0m	[38;5;27mw1[0m, [38;5;27mw1[0m, [38;5;27mw2[0m
   802b8:	2a030021 	[38;5;142morr[0m	[38;5;27mw1[0m, [38;5;27mw1[0m, [38;5;27mw3[0m
   802bc:	b9000081 	[38;5;142mstr[0m	[38;5;27mw1[0m, [[38;5;27mx4[0m]
   802c0:	d65f03c0 	[38;5;142mret[0m

00000000000802c4 <gpio_useAsAlt5>:
   802c4:	7100d41f 	[38;5;142mcmp[0m	[38;5;27mw0[0m, [38;5;134m#0x35[0m
   802c8:	540003a8 	[38;5;142mb.hi[0m	[38;5;134m8033c[0m <[38;5;40mgpio_useAsAlt5[0m[38;5;134m+0x[0m[38;5;134m78[0m>[38;5;250m  // b.pmore[0m
   802cc:	529999a1 	[38;5;142mmov[0m	[38;5;27mw1[0m, [38;5;134m#0xcccd                [0m[38;5;250m	// #52429[0m
   802d0:	53047c03 	[38;5;142mlsr[0m	[38;5;27mw3[0m, [38;5;27mw0[0m, [38;5;134m#4[0m
   802d4:	72b99981 	[38;5;142mmovk[0m	[38;5;27mw1[0m, [38;5;134m#0xcccc[0m, [38;5;142mlsl[0m [38;5;134m#16[0m
   802d8:	52801c82 	[38;5;142mmov[0m	[38;5;27mw2[0m, [38;5;134m#0xe4                  [0m[38;5;250m	// #228[0m
   802dc:	72bfc402 	[38;5;142mmovk[0m	[38;5;27mw2[0m, [38;5;134m#0xfe20[0m, [38;5;142mlsl[0m [38;5;134m#16[0m
   802e0:	52800066 	[38;5;142mmov[0m	[38;5;27mw6[0m, [38;5;134m#0x3                   [0m[38;5;250m	// #3[0m
   802e4:	9ba17c01 	[38;5;142mumull[0m	[38;5;27mx1[0m, [38;5;27mw0[0m, [38;5;27mw1[0m
   802e8:	0b030843 	[38;5;142madd[0m	[38;5;27mw3[0m, [38;5;27mw2[0m, [38;5;27mw3[0m, [38;5;142mlsl[0m [38;5;134m#2[0m
   802ec:	531f0c02 	[38;5;142mubfiz[0m	[38;5;27mw2[0m, [38;5;27mw0[0m, [38;5;134m#1[0m, [38;5;134m#4[0m
   802f0:	52bfc408 	[38;5;142mmov[0m	[38;5;27mw8[0m, [38;5;134m#0xfe200000            [0m[38;5;250m	// #-31457280[0m
   802f4:	528000e5 	[38;5;142mmov[0m	[38;5;27mw5[0m, [38;5;134m#0x7                   [0m[38;5;250m	// #7[0m
   802f8:	52800044 	[38;5;142mmov[0m	[38;5;27mw4[0m, [38;5;134m#0x2                   [0m[38;5;250m	// #2[0m
   802fc:	d363fc21 	[38;5;142mlsr[0m	[38;5;27mx1[0m, [38;5;27mx1[0m, [38;5;134m#35[0m
   80300:	1ac220c6 	[38;5;142mlsl[0m	[38;5;27mw6[0m, [38;5;27mw6[0m, [38;5;27mw2[0m
   80304:	b9400067 	[38;5;142mldr[0m	[38;5;27mw7[0m, [[38;5;27mx3[0m]
   80308:	531e7422 	[38;5;142mlsl[0m	[38;5;27mw2[0m, [38;5;27mw1[0m, [38;5;134m#2[0m
   8030c:	0b010041 	[38;5;142madd[0m	[38;5;27mw1[0m, [38;5;27mw2[0m, [38;5;27mw1[0m
   80310:	0b080042 	[38;5;142madd[0m	[38;5;27mw2[0m, [38;5;27mw2[0m, [38;5;27mw8[0m
   80314:	0a2600e6 	[38;5;142mbic[0m	[38;5;27mw6[0m, [38;5;27mw7[0m, [38;5;27mw6[0m
   80318:	b9000066 	[38;5;142mstr[0m	[38;5;27mw6[0m, [[38;5;27mx3[0m]
   8031c:	4b010400 	[38;5;142msub[0m	[38;5;27mw0[0m, [38;5;27mw0[0m, [38;5;27mw1[0m, [38;5;142mlsl[0m [38;5;134m#1[0m
   80320:	b9400043 	[38;5;142mldr[0m	[38;5;27mw3[0m, [[38;5;27mx2[0m]
   80324:	0b000400 	[38;5;142madd[0m	[38;5;27mw0[0m, [38;5;27mw0[0m, [38;5;27mw0[0m, [38;5;142mlsl[0m [38;5;134m#1[0m
   80328:	1ac020a1 	[38;5;142mlsl[0m	[38;5;27mw1[0m, [38;5;27mw5[0m, [38;5;27mw0[0m
   8032c:	0a210061 	[38;5;142mbic[0m	[38;5;27mw1[0m, [38;5;27mw3[0m, [38;5;27mw1[0m
   80330:	1ac02080 	[38;5;142mlsl[0m	[38;5;27mw0[0m, [38;5;27mw4[0m, [38;5;27mw0[0m
   80334:	2a010000 	[38;5;142morr[0m	[38;5;27mw0[0m, [38;5;27mw0[0m, [38;5;27mw1[0m
   80338:	b9000040 	[38;5;142mstr[0m	[38;5;27mw0[0m, [[38;5;27mx2[0m]
   8033c:	d65f03c0 	[38;5;142mret[0m

0000000000080340 <uart_init>:
   80340:	d28a0081 	[38;5;142mmov[0m	[38;5;27mx1[0m, [38;5;134m#0x5004                [0m[38;5;250m	// #20484[0m
   80344:	52800022 	[38;5;142mmov[0m	[38;5;27mw2[0m, [38;5;134m#0x1                   [0m[38;5;250m	// #1[0m
   80348:	f2bfc421 	[38;5;142mmovk[0m	[38;5;27mx1[0m, [38;5;134m#0xfe21[0m, [38;5;142mlsl[0m [38;5;134m#16[0m
   8034c:	aa0103e0 	[38;5;142mmov[0m	[38;5;27mx0[0m, [38;5;27mx1[0m
   80350:	52800064 	[38;5;142mmov[0m	[38;5;27mw4[0m, [38;5;134m#0x3                   [0m[38;5;250m	// #3[0m
   80354:	528018c6 	[38;5;142mmov[0m	[38;5;27mw6[0m, [38;5;134m#0xc6                  [0m[38;5;250m	// #198[0m
   80358:	d2801c83 	[38;5;142mmov[0m	[38;5;27mx3[0m, [38;5;134m#0xe4                  [0m[38;5;250m	// #228[0m
   8035c:	528043a5 	[38;5;142mmov[0m	[38;5;27mw5[0m, [38;5;134m#0x21d                 [0m[38;5;250m	// #541[0m
   80360:	b8040402 	[38;5;142mstr[0m	[38;5;27mw2[0m, [[38;5;27mx0[0m], [38;5;134m#64[0m
   80364:	f2bfc403 	[38;5;142mmovk[0m	[38;5;27mx3[0m, [38;5;134m#0xfe20[0m, [38;5;142mlsl[0m [38;5;134m#16[0m
   80368:	b900403f 	[38;5;142mstr[0m	[38;5;27mwzr[0m, [[38;5;27mx1[0m, [38;5;134m#64[0m]
   8036c:	d2800082 	[38;5;142mmov[0m	[38;5;27mx2[0m, [38;5;134m#0x4                   [0m[38;5;250m	// #4[0m
   80370:	b9001c1f 	[38;5;142mstr[0m	[38;5;27mwzr[0m, [[38;5;27mx0[0m, [38;5;134m#28[0m]
   80374:	f2bfc402 	[38;5;142mmovk[0m	[38;5;27mx2[0m, [38;5;134m#0xfe20[0m, [38;5;142mlsl[0m [38;5;134m#16[0m
   80378:	b9000804 	[38;5;142mstr[0m	[38;5;27mw4[0m, [[38;5;27mx0[0m, [38;5;134m#8[0m]
   8037c:	b9000c1f 	[38;5;142mstr[0m	[38;5;27mwzr[0m, [[38;5;27mx0[0m, [38;5;134m#12[0m]
   80380:	b900403f 	[38;5;142mstr[0m	[38;5;27mwzr[0m, [[38;5;27mx1[0m, [38;5;134m#64[0m]
   80384:	b9000406 	[38;5;142mstr[0m	[38;5;27mw6[0m, [[38;5;27mx0[0m, [38;5;134m#4[0m]
   80388:	b9002405 	[38;5;142mstr[0m	[38;5;27mw5[0m, [[38;5;27mx0[0m, [38;5;134m#36[0m]
   8038c:	b9400061 	[38;5;142mldr[0m	[38;5;27mw1[0m, [[38;5;27mx3[0m]
   80390:	12027421 	[38;5;142mand[0m	[38;5;27mw1[0m, [38;5;27mw1[0m, [38;5;134m#0xcfffffff[0m
   80394:	b9000061 	[38;5;142mstr[0m	[38;5;27mw1[0m, [[38;5;27mx3[0m]
   80398:	b9400041 	[38;5;142mldr[0m	[38;5;27mw1[0m, [[38;5;27mx2[0m]
   8039c:	12117021 	[38;5;142mand[0m	[38;5;27mw1[0m, [38;5;27mw1[0m, [38;5;134m#0xffff8fff[0m
   803a0:	32130021 	[38;5;142morr[0m	[38;5;27mw1[0m, [38;5;27mw1[0m, [38;5;134m#0x2000[0m
   803a4:	b9000041 	[38;5;142mstr[0m	[38;5;27mw1[0m, [[38;5;27mx2[0m]
   803a8:	b9400061 	[38;5;142mldr[0m	[38;5;27mw1[0m, [[38;5;27mx3[0m]
   803ac:	12007421 	[38;5;142mand[0m	[38;5;27mw1[0m, [38;5;27mw1[0m, [38;5;134m#0x3fffffff[0m
   803b0:	b9000061 	[38;5;142mstr[0m	[38;5;27mw1[0m, [[38;5;27mx3[0m]
   803b4:	b9400041 	[38;5;142mldr[0m	[38;5;27mw1[0m, [[38;5;27mx2[0m]
   803b8:	120e7021 	[38;5;142mand[0m	[38;5;27mw1[0m, [38;5;27mw1[0m, [38;5;134m#0xfffc7fff[0m
   803bc:	32100021 	[38;5;142morr[0m	[38;5;27mw1[0m, [38;5;27mw1[0m, [38;5;134m#0x10000[0m
   803c0:	b9000041 	[38;5;142mstr[0m	[38;5;27mw1[0m, [[38;5;27mx2[0m]
   803c4:	b9001c04 	[38;5;142mstr[0m	[38;5;27mw4[0m, [[38;5;27mx0[0m, [38;5;134m#28[0m]
   803c8:	d65f03c0 	[38;5;142mret[0m
   803cc:	d503201f 	[38;5;142mnop[0m

00000000000803d0 <uart_isWriteByteReady>:
   803d0:	d28a0a80 	[38;5;142mmov[0m	[38;5;27mx0[0m, [38;5;134m#0x5054                [0m[38;5;250m	// #20564[0m
   803d4:	f2bfc420 	[38;5;142mmovk[0m	[38;5;27mx0[0m, [38;5;134m#0xfe21[0m, [38;5;142mlsl[0m [38;5;134m#16[0m
   803d8:	b9400000 	[38;5;142mldr[0m	[38;5;27mw0[0m, [[38;5;27mx0[0m]
   803dc:	121b0000 	[38;5;142mand[0m	[38;5;27mw0[0m, [38;5;27mw0[0m, [38;5;134m#0x20[0m
   803e0:	d65f03c0 	[38;5;142mret[0m

00000000000803e4 <uart_writeByteBlockingActual>:
   803e4:	d28a0a82 	[38;5;142mmov[0m	[38;5;27mx2[0m, [38;5;134m#0x5054                [0m[38;5;250m	// #20564[0m
   803e8:	12001c00 	[38;5;142mand[0m	[38;5;27mw0[0m, [38;5;27mw0[0m, [38;5;134m#0xff[0m
   803ec:	f2bfc422 	[38;5;142mmovk[0m	[38;5;27mx2[0m, [38;5;134m#0xfe21[0m, [38;5;142mlsl[0m [38;5;134m#16[0m
   803f0:	b9400041 	[38;5;142mldr[0m	[38;5;27mw1[0m, [[38;5;27mx2[0m]
   803f4:	362fffe1 	[38;5;142mtbz[0m	[38;5;27mw1[0m, [38;5;134m#5[0m, [38;5;134m803f0[0m <[38;5;40muart_writeByteBlockingActual[0m[38;5;134m+0x[0m[38;5;134mc[0m>
   803f8:	b81ec040 	[38;5;142mstur[0m	[38;5;27mw0[0m, [[38;5;27mx2[0m, [38;5;134m#-20[0m]
   803fc:	d65f03c0 	[38;5;142mret[0m

0000000000080400 <uart_writeText>:
   80400:	39400001 	[38;5;142mldrb[0m	[38;5;27mw1[0m, [[38;5;27mx0[0m]
   80404:	340001c1 	[38;5;142mcbz[0m	[38;5;27mw1[0m, [38;5;134m8043c[0m <[38;5;40muart_writeText[0m[38;5;134m+0x[0m[38;5;134m3c[0m>
   80408:	d28a0a82 	[38;5;142mmov[0m	[38;5;27mx2[0m, [38;5;134m#0x5054                [0m[38;5;250m	// #20564[0m
   8040c:	528001a5 	[38;5;142mmov[0m	[38;5;27mw5[0m, [38;5;134m#0xd                   [0m[38;5;250m	// #13[0m
   80410:	f2bfc422 	[38;5;142mmovk[0m	[38;5;27mx2[0m, [38;5;134m#0xfe21[0m, [38;5;142mlsl[0m [38;5;134m#16[0m
   80414:	d1005044 	[38;5;142msub[0m	[38;5;27mx4[0m, [38;5;27mx2[0m, [38;5;134m#0x14[0m
   80418:	7100283f 	[38;5;142mcmp[0m	[38;5;27mw1[0m, [38;5;134m#0xa[0m
   8041c:	54000120 	[38;5;142mb.eq[0m	[38;5;134m80440[0m <[38;5;40muart_writeText[0m[38;5;134m+0x[0m[38;5;134m40[0m>[38;5;250m  // b.none[0m
   80420:	38401403 	[38;5;142mldrb[0m	[38;5;27mw3[0m, [[38;5;27mx0[0m], [38;5;134m#1[0m
   80424:	d503201f 	[38;5;142mnop[0m
   80428:	b9400041 	[38;5;142mldr[0m	[38;5;27mw1[0m, [[38;5;27mx2[0m]
   8042c:	362fffe1 	[38;5;142mtbz[0m	[38;5;27mw1[0m, [38;5;134m#5[0m, [38;5;134m80428[0m <[38;5;40muart_writeText[0m[38;5;134m+0x[0m[38;5;134m28[0m>
   80430:	b9000083 	[38;5;142mstr[0m	[38;5;27mw3[0m, [[38;5;27mx4[0m]
   80434:	39400001 	[38;5;142mldrb[0m	[38;5;27mw1[0m, [[38;5;27mx0[0m]
   80438:	35ffff01 	[38;5;142mcbnz[0m	[38;5;27mw1[0m, [38;5;134m80418[0m <[38;5;40muart_writeText[0m[38;5;134m+0x[0m[38;5;134m18[0m>
   8043c:	d65f03c0 	[38;5;142mret[0m
   80440:	b9400041 	[38;5;142mldr[0m	[38;5;27mw1[0m, [[38;5;27mx2[0m]
   80444:	362fffe1 	[38;5;142mtbz[0m	[38;5;27mw1[0m, [38;5;134m#5[0m, [38;5;134m80440[0m <[38;5;40muart_writeText[0m[38;5;134m+0x[0m[38;5;134m40[0m>
   80448:	b9000085 	[38;5;142mstr[0m	[38;5;27mw5[0m, [[38;5;27mx4[0m]
   8044c:	17fffff5 	[38;5;142mb[0m	[38;5;134m80420[0m <[38;5;40muart_writeText[0m[38;5;134m+0x[0m[38;5;134m20[0m>

0000000000080450 <lenstr>:
   80450:	39400001 	[38;5;142mldrb[0m	[38;5;27mw1[0m, [[38;5;27mx0[0m]
   80454:	34000121 	[38;5;142mcbz[0m	[38;5;27mw1[0m, [38;5;134m80478[0m <[38;5;40mlenstr[0m[38;5;134m+0x[0m[38;5;134m28[0m>
   80458:	aa0003e1 	[38;5;142mmov[0m	[38;5;27mx1[0m, [38;5;27mx0[0m
   8045c:	d503201f 	[38;5;142mnop[0m
   80460:	aa0103e3 	[38;5;142mmov[0m	[38;5;27mx3[0m, [38;5;27mx1[0m
   80464:	38401c22 	[38;5;142mldrb[0m	[38;5;27mw2[0m, [[38;5;27mx1[0m, [38;5;134m#1[0m]!
   80468:	35ffffc2 	[38;5;142mcbnz[0m	[38;5;27mw2[0m, [38;5;134m80460[0m <[38;5;40mlenstr[0m[38;5;134m+0x[0m[38;5;134m10[0m>
   8046c:	4b000060 	[38;5;142msub[0m	[38;5;27mw0[0m, [38;5;27mw3[0m, [38;5;27mw0[0m
   80470:	11000400 	[38;5;142madd[0m	[38;5;27mw0[0m, [38;5;27mw0[0m, [38;5;134m#0x1[0m
   80474:	d65f03c0 	[38;5;142mret[0m
   80478:	52800000 	[38;5;142mmov[0m	[38;5;27mw0[0m, [38;5;134m#0x0                   [0m[38;5;250m	// #0[0m
   8047c:	d65f03c0 	[38;5;142mret[0m

0000000000080480 <cmpstr>:
   80480:	39400002 	[38;5;142mldrb[0m	[38;5;27mw2[0m, [[38;5;27mx0[0m]
   80484:	350000a2 	[38;5;142mcbnz[0m	[38;5;27mw2[0m, [38;5;134m80498[0m <[38;5;40mcmpstr[0m[38;5;134m+0x[0m[38;5;134m18[0m>
   80488:	1400000d 	[38;5;142mb[0m	[38;5;134m804bc[0m <[38;5;40mcmpstr[0m[38;5;134m+0x[0m[38;5;134m3c[0m>
   8048c:	38401c02 	[38;5;142mldrb[0m	[38;5;27mw2[0m, [[38;5;27mx0[0m, [38;5;134m#1[0m]!
   80490:	34000102 	[38;5;142mcbz[0m	[38;5;27mw2[0m, [38;5;134m804b0[0m <[38;5;40mcmpstr[0m[38;5;134m+0x[0m[38;5;134m30[0m>
   80494:	aa0403e1 	[38;5;142mmov[0m	[38;5;27mx1[0m, [38;5;27mx4[0m
   80498:	39400023 	[38;5;142mldrb[0m	[38;5;27mw3[0m, [[38;5;27mx1[0m]
   8049c:	91000424 	[38;5;142madd[0m	[38;5;27mx4[0m, [38;5;27mx1[0m, [38;5;134m#0x1[0m
   804a0:	6b02007f 	[38;5;142mcmp[0m	[38;5;27mw3[0m, [38;5;27mw2[0m
   804a4:	54ffff40 	[38;5;142mb.eq[0m	[38;5;134m8048c[0m <[38;5;40mcmpstr[0m[38;5;134m+0x[0m[38;5;134mc[0m>[38;5;250m  // b.none[0m
   804a8:	4b030040 	[38;5;142msub[0m	[38;5;27mw0[0m, [38;5;27mw2[0m, [38;5;27mw3[0m
   804ac:	d65f03c0 	[38;5;142mret[0m
   804b0:	39400423 	[38;5;142mldrb[0m	[38;5;27mw3[0m, [[38;5;27mx1[0m, [38;5;134m#1[0m]
   804b4:	4b030040 	[38;5;142msub[0m	[38;5;27mw0[0m, [38;5;27mw2[0m, [38;5;27mw3[0m
   804b8:	d65f03c0 	[38;5;142mret[0m
   804bc:	39400023 	[38;5;142mldrb[0m	[38;5;27mw3[0m, [[38;5;27mx1[0m]
   804c0:	17fffffa 	[38;5;142mb[0m	[38;5;134m804a8[0m <[38;5;40mcmpstr[0m[38;5;134m+0x[0m[38;5;134m28[0m>

00000000000804c4 <getDecStr>:
   804c4:	34000261 	[38;5;142mcbz[0m	[38;5;27mw1[0m, [38;5;134m80510[0m <[38;5;40mgetDecStr[0m[38;5;134m+0x[0m[38;5;134m4c[0m>
   804c8:	529999a6 	[38;5;142mmov[0m	[38;5;27mw6[0m, [38;5;134m#0xcccd                [0m[38;5;250m	// #52429[0m
   804cc:	51000425 	[38;5;142msub[0m	[38;5;27mw5[0m, [38;5;27mw1[0m, [38;5;134m#0x1[0m
   804d0:	72b99986 	[38;5;142mmovk[0m	[38;5;27mw6[0m, [38;5;134m#0xcccc[0m, [38;5;142mlsl[0m [38;5;134m#16[0m
   804d4:	d503201f 	[38;5;142mnop[0m
   804d8:	9ba67c44 	[38;5;142mumull[0m	[38;5;27mx4[0m, [38;5;27mw2[0m, [38;5;27mw6[0m
   804dc:	d363fc84 	[38;5;142mlsr[0m	[38;5;27mx4[0m, [38;5;27mx4[0m, [38;5;134m#35[0m
   804e0:	0b040883 	[38;5;142madd[0m	[38;5;27mw3[0m, [38;5;27mw4[0m, [38;5;27mw4[0m, [38;5;142mlsl[0m [38;5;134m#2[0m
   804e4:	4b030443 	[38;5;142msub[0m	[38;5;27mw3[0m, [38;5;27mw2[0m, [38;5;27mw3[0m, [38;5;142mlsl[0m [38;5;134m#1[0m
   804e8:	2a0403e2 	[38;5;142mmov[0m	[38;5;27mw2[0m, [38;5;27mw4[0m
   804ec:	1100c063 	[38;5;142madd[0m	[38;5;27mw3[0m, [38;5;27mw3[0m, [38;5;134m#0x30[0m
   804f0:	38254803 	[38;5;142mstrb[0m	[38;5;27mw3[0m, [[38;5;27mx0[0m, [38;5;27mw5[0m, [38;5;142muxtw[0m]
   804f4:	510004a5 	[38;5;142msub[0m	[38;5;27mw5[0m, [38;5;27mw5[0m, [38;5;134m#0x1[0m
   804f8:	310004bf 	[38;5;142mcmn[0m	[38;5;27mw5[0m, [38;5;134m#0x1[0m
   804fc:	54fffee1 	[38;5;142mb.ne[0m	[38;5;134m804d8[0m <[38;5;40mgetDecStr[0m[38;5;134m+0x[0m[38;5;134m14[0m>[38;5;250m  // b.any[0m
   80500:	11000421 	[38;5;142madd[0m	[38;5;27mw1[0m, [38;5;27mw1[0m, [38;5;134m#0x1[0m
   80504:	93407c21 	[38;5;142msxtw[0m	[38;5;27mx1[0m, [38;5;27mw1[0m
   80508:	d1000421 	[38;5;142msub[0m	[38;5;27mx1[0m, [38;5;27mx1[0m, [38;5;134m#0x1[0m
   8050c:	8b010000 	[38;5;142madd[0m	[38;5;27mx0[0m, [38;5;27mx0[0m, [38;5;27mx1[0m
   80510:	52800141 	[38;5;142mmov[0m	[38;5;27mw1[0m, [38;5;134m#0xa                   [0m[38;5;250m	// #10[0m
   80514:	39000001 	[38;5;142mstrb[0m	[38;5;27mw1[0m, [[38;5;27mx0[0m]
   80518:	d65f03c0 	[38;5;142mret[0m
   8051c:	00000000 	[38;5;142mudf[0m	[38;5;134m#0[0m

0000000000080520 <enable_interrupt_controller>:
   80520:	d2964000 	[38;5;142mmov[0m	[38;5;27mx0[0m, [38;5;134m#0xb200                [0m[38;5;250m	// #45568[0m
   80524:	52800041 	[38;5;142mmov[0m	[38;5;27mw1[0m, [38;5;134m#0x2                   [0m[38;5;250m	// #2[0m
   80528:	f2bfc000 	[38;5;142mmovk[0m	[38;5;27mx0[0m, [38;5;134m#0xfe00[0m, [38;5;142mlsl[0m [38;5;134m#16[0m
   8052c:	b9001001 	[38;5;142mstr[0m	[38;5;27mw1[0m, [[38;5;27mx0[0m, [38;5;134m#16[0m]
   80530:	d65f03c0 	[38;5;142mret[0m

0000000000080534 <disable_interrupt_controller>:
   80534:	d2964000 	[38;5;142mmov[0m	[38;5;27mx0[0m, [38;5;134m#0xb200                [0m[38;5;250m	// #45568[0m
   80538:	f2bfc000 	[38;5;142mmovk[0m	[38;5;27mx0[0m, [38;5;134m#0xfe00[0m, [38;5;142mlsl[0m [38;5;134m#16[0m
   8053c:	b900101f 	[38;5;142mstr[0m	[38;5;27mwzr[0m, [[38;5;27mx0[0m, [38;5;134m#16[0m]
   80540:	d65f03c0 	[38;5;142mret[0m

0000000000080544 <handle_irq>:
   80544:	a9be7bfd 	[38;5;142mstp[0m	[38;5;27mx29[0m, [38;5;27mx30[0m, [[38;5;27msp[0m, [38;5;134m#-32[0m]!
   80548:	d2964000 	[38;5;142mmov[0m	[38;5;27mx0[0m, [38;5;134m#0xb200                [0m[38;5;250m	// #45568[0m
   8054c:	f2bfc000 	[38;5;142mmovk[0m	[38;5;27mx0[0m, [38;5;134m#0xfe00[0m, [38;5;142mlsl[0m [38;5;134m#16[0m
   80550:	910003fd 	[38;5;142mmov[0m	[38;5;27mx29[0m, [38;5;27msp[0m
   80554:	f9000bf3 	[38;5;142mstr[0m	[38;5;27mx19[0m, [[38;5;27msp[0m, [38;5;134m#16[0m]
   80558:	b9400013 	[38;5;142mldr[0m	[38;5;27mw19[0m, [[38;5;27mx0[0m]
   8055c:	340000d3 	[38;5;142mcbz[0m	[38;5;27mw19[0m, [38;5;134m80574[0m <[38;5;40mhandle_irq[0m[38;5;134m+0x[0m[38;5;134m30[0m>
   80560:	37080053 	[38;5;142mtbnz[0m	[38;5;27mw19[0m, [38;5;134m#1[0m, [38;5;134m80568[0m <[38;5;40mhandle_irq[0m[38;5;134m+0x[0m[38;5;134m24[0m>
   80564:	14000000 	[38;5;142mb[0m	[38;5;134m80564[0m <[38;5;40mhandle_irq[0m[38;5;134m+0x[0m[38;5;134m20[0m>
   80568:	121e7a73 	[38;5;142mand[0m	[38;5;27mw19[0m, [38;5;27mw19[0m, [38;5;134m#0xfffffffd[0m
   8056c:	9400000e 	[38;5;142mbl[0m	[38;5;134m805a4[0m <[38;5;40mhandle_timer_1[0m>
   80570:	35ffff93 	[38;5;142mcbnz[0m	[38;5;27mw19[0m, [38;5;134m80560[0m <[38;5;40mhandle_irq[0m[38;5;134m+0x[0m[38;5;134m1c[0m>
   80574:	f9400bf3 	[38;5;142mldr[0m	[38;5;27mx19[0m, [[38;5;27msp[0m, [38;5;134m#16[0m]
   80578:	a8c27bfd 	[38;5;142mldp[0m	[38;5;27mx29[0m, [38;5;27mx30[0m, [[38;5;27msp[0m], [38;5;134m#32[0m
   8057c:	d65f03c0 	[38;5;142mret[0m

0000000000080580 <timer_init>:
   80580:	d2860001 	[38;5;142mmov[0m	[38;5;27mx1[0m, [38;5;134m#0x3000                [0m[38;5;250m	// #12288[0m
   80584:	b0000002 	[38;5;142madrp[0m	[38;5;27mx2[0m, [38;5;134m81000[0m <[38;5;40mirq_invalid_el1t[0m[38;5;134m+0x[0m[38;5;134m28[0m>
   80588:	f2bfc001 	[38;5;142mmovk[0m	[38;5;27mx1[0m, [38;5;134m#0xfe00[0m, [38;5;142mlsl[0m [38;5;134m#16[0m
   8058c:	b9400420 	[38;5;142mldr[0m	[38;5;27mw0[0m, [[38;5;27mx1[0m, [38;5;134m#4[0m]
   80590:	1143d000 	[38;5;142madd[0m	[38;5;27mw0[0m, [38;5;27mw0[0m, [38;5;134m#0xf4[0m, [38;5;142mlsl[0m [38;5;134m#12[0m
   80594:	11090000 	[38;5;142madd[0m	[38;5;27mw0[0m, [38;5;27mw0[0m, [38;5;134m#0x240[0m
   80598:	b9057040 	[38;5;142mstr[0m	[38;5;27mw0[0m, [[38;5;27mx2[0m, [38;5;134m#1392[0m]
   8059c:	b9001020 	[38;5;142mstr[0m	[38;5;27mw0[0m, [[38;5;27mx1[0m, [38;5;134m#16[0m]
   805a0:	d65f03c0 	[38;5;142mret[0m

00000000000805a4 <handle_timer_1>:
   805a4:	a9be7bfd 	[38;5;142mstp[0m	[38;5;27mx29[0m, [38;5;27mx30[0m, [[38;5;27msp[0m, [38;5;134m#-32[0m]!
   805a8:	b0000004 	[38;5;142madrp[0m	[38;5;27mx4[0m, [38;5;134m81000[0m <[38;5;40mirq_invalid_el1t[0m[38;5;134m+0x[0m[38;5;134m28[0m>
   805ac:	d2860003 	[38;5;142mmov[0m	[38;5;27mx3[0m, [38;5;134m#0x3000                [0m[38;5;250m	// #12288[0m
   805b0:	910003fd 	[38;5;142mmov[0m	[38;5;27mx29[0m, [38;5;27msp[0m
   805b4:	b9457082 	[38;5;142mldr[0m	[38;5;27mw2[0m, [[38;5;27mx4[0m, [38;5;134m#1392[0m]
   805b8:	f2bfc003 	[38;5;142mmovk[0m	[38;5;27mx3[0m, [38;5;134m#0xfe00[0m, [38;5;142mlsl[0m [38;5;134m#16[0m
   805bc:	9115c085 	[38;5;142madd[0m	[38;5;27mx5[0m, [38;5;27mx4[0m, [38;5;134m#0x570[0m
   805c0:	f9000bf3 	[38;5;142mstr[0m	[38;5;27mx19[0m, [[38;5;27msp[0m, [38;5;134m#16[0m]
   805c4:	1143d042 	[38;5;142madd[0m	[38;5;27mw2[0m, [38;5;27mw2[0m, [38;5;134m#0xf4[0m, [38;5;142mlsl[0m [38;5;134m#12[0m
   805c8:	52800061 	[38;5;142mmov[0m	[38;5;27mw1[0m, [38;5;134m#0x3                   [0m[38;5;250m	// #3[0m
   805cc:	11090042 	[38;5;142madd[0m	[38;5;27mw2[0m, [38;5;27mw2[0m, [38;5;134m#0x240[0m
   805d0:	b9057082 	[38;5;142mstr[0m	[38;5;27mw2[0m, [[38;5;27mx4[0m, [38;5;134m#1392[0m]
   805d4:	b9001062 	[38;5;142mstr[0m	[38;5;27mw2[0m, [[38;5;27mx3[0m, [38;5;134m#16[0m]
   805d8:	b0000013 	[38;5;142madrp[0m	[38;5;27mx19[0m, [38;5;134m81000[0m <[38;5;40mirq_invalid_el1t[0m[38;5;134m+0x[0m[38;5;134m28[0m>
   805dc:	91148273 	[38;5;142madd[0m	[38;5;27mx19[0m, [38;5;27mx19[0m, [38;5;134m#0x520[0m
   805e0:	b9400064 	[38;5;142mldr[0m	[38;5;27mw4[0m, [[38;5;27mx3[0m]
   805e4:	aa1303e0 	[38;5;142mmov[0m	[38;5;27mx0[0m, [38;5;27mx19[0m
   805e8:	b94004a2 	[38;5;142mldr[0m	[38;5;27mw2[0m, [[38;5;27mx5[0m, [38;5;134m#4[0m]
   805ec:	321f0084 	[38;5;142morr[0m	[38;5;27mw4[0m, [38;5;27mw4[0m, [38;5;134m#0x2[0m
   805f0:	11000442 	[38;5;142madd[0m	[38;5;27mw2[0m, [38;5;27mw2[0m, [38;5;134m#0x1[0m
   805f4:	b90004a2 	[38;5;142mstr[0m	[38;5;27mw2[0m, [[38;5;27mx5[0m, [38;5;134m#4[0m]
   805f8:	b9000064 	[38;5;142mstr[0m	[38;5;27mw4[0m, [[38;5;27mx3[0m]
   805fc:	97ffffb2 	[38;5;142mbl[0m	[38;5;134m804c4[0m <[38;5;40mgetDecStr[0m>
   80600:	aa1303e0 	[38;5;142mmov[0m	[38;5;27mx0[0m, [38;5;27mx19[0m
   80604:	97ffff7f 	[38;5;142mbl[0m	[38;5;134m80400[0m <[38;5;40muart_writeText[0m>
   80608:	f9400bf3 	[38;5;142mldr[0m	[38;5;27mx19[0m, [[38;5;27msp[0m, [38;5;134m#16[0m]
   8060c:	b0000000 	[38;5;142madrp[0m	[38;5;27mx0[0m, [38;5;134m81000[0m <[38;5;40mirq_invalid_el1t[0m[38;5;134m+0x[0m[38;5;134m28[0m>
   80610:	a8c27bfd 	[38;5;142mldp[0m	[38;5;27mx29[0m, [38;5;27mx30[0m, [[38;5;27msp[0m], [38;5;134m#32[0m
   80614:	9114a000 	[38;5;142madd[0m	[38;5;27mx0[0m, [38;5;27mx0[0m, [38;5;134m#0x528[0m
   80618:	17ffff7a 	[38;5;142mb[0m	[38;5;134m80400[0m <[38;5;40muart_writeText[0m>
   8061c:	00000000 	[38;5;142mudf[0m	[38;5;134m#0[0m

0000000000080620 <main>:
   80620:	a9bf7bfd 	[38;5;142mstp[0m	[38;5;27mx29[0m, [38;5;27mx30[0m, [[38;5;27msp[0m, [38;5;134m#-16[0m]!
   80624:	910003fd 	[38;5;142mmov[0m	[38;5;27mx29[0m, [38;5;27msp[0m
   80628:	97ffff46 	[38;5;142mbl[0m	[38;5;134m80340[0m <[38;5;40muart_init[0m>
   8062c:	b0000000 	[38;5;142madrp[0m	[38;5;27mx0[0m, [38;5;134m81000[0m <[38;5;40mirq_invalid_el1t[0m[38;5;134m+0x[0m[38;5;134m28[0m>
   80630:	91152000 	[38;5;142madd[0m	[38;5;27mx0[0m, [38;5;27mx0[0m, [38;5;134m#0x548[0m
   80634:	97ffff73 	[38;5;142mbl[0m	[38;5;134m80400[0m <[38;5;40muart_writeText[0m>
   80638:	940003b3 	[38;5;142mbl[0m	[38;5;134m81504[0m <[38;5;40mirq_init_vectors[0m>
   8063c:	97ffffb9 	[38;5;142mbl[0m	[38;5;134m80520[0m <[38;5;40menable_interrupt_controller[0m>
   80640:	940003b4 	[38;5;142mbl[0m	[38;5;134m81510[0m <[38;5;40mirq_enable[0m>
   80644:	d2860001 	[38;5;142mmov[0m	[38;5;27mx1[0m, [38;5;134m#0x3000                [0m[38;5;250m	// #12288[0m
   80648:	b0000002 	[38;5;142madrp[0m	[38;5;27mx2[0m, [38;5;134m81000[0m <[38;5;40mirq_invalid_el1t[0m[38;5;134m+0x[0m[38;5;134m28[0m>
   8064c:	f2bfc001 	[38;5;142mmovk[0m	[38;5;27mx1[0m, [38;5;134m#0xfe00[0m, [38;5;142mlsl[0m [38;5;134m#16[0m
   80650:	9115c043 	[38;5;142madd[0m	[38;5;27mx3[0m, [38;5;27mx2[0m, [38;5;134m#0x570[0m
   80654:	b9400420 	[38;5;142mldr[0m	[38;5;27mw0[0m, [[38;5;27mx1[0m, [38;5;134m#4[0m]
   80658:	b900047f 	[38;5;142mstr[0m	[38;5;27mwzr[0m, [[38;5;27mx3[0m, [38;5;134m#4[0m]
   8065c:	1143d000 	[38;5;142madd[0m	[38;5;27mw0[0m, [38;5;27mw0[0m, [38;5;134m#0xf4[0m, [38;5;142mlsl[0m [38;5;134m#12[0m
   80660:	11090000 	[38;5;142madd[0m	[38;5;27mw0[0m, [38;5;27mw0[0m, [38;5;134m#0x240[0m
   80664:	b9057040 	[38;5;142mstr[0m	[38;5;27mw0[0m, [[38;5;27mx2[0m, [38;5;134m#1392[0m]
   80668:	b9001020 	[38;5;142mstr[0m	[38;5;27mw0[0m, [[38;5;27mx1[0m, [38;5;134m#16[0m]
   8066c:	14000000 	[38;5;142mb[0m	[38;5;134m8066c[0m <[38;5;40mmain[0m[38;5;134m+0x[0m[38;5;134m4c[0m>
	...

0000000000080800 <vectors>:
   80800:	140001e1 	[38;5;142mb[0m	[38;5;134m80f84[0m <[38;5;40msync_invalid_el1t[0m>
   80804:	d503201f 	[38;5;142mnop[0m
   80808:	d503201f 	[38;5;142mnop[0m
   8080c:	d503201f 	[38;5;142mnop[0m
   80810:	d503201f 	[38;5;142mnop[0m
   80814:	d503201f 	[38;5;142mnop[0m
   80818:	d503201f 	[38;5;142mnop[0m
   8081c:	d503201f 	[38;5;142mnop[0m
   80820:	d503201f 	[38;5;142mnop[0m
   80824:	d503201f 	[38;5;142mnop[0m
   80828:	d503201f 	[38;5;142mnop[0m
   8082c:	d503201f 	[38;5;142mnop[0m
   80830:	d503201f 	[38;5;142mnop[0m
   80834:	d503201f 	[38;5;142mnop[0m
   80838:	d503201f 	[38;5;142mnop[0m
   8083c:	d503201f 	[38;5;142mnop[0m
   80840:	d503201f 	[38;5;142mnop[0m
   80844:	d503201f 	[38;5;142mnop[0m
   80848:	d503201f 	[38;5;142mnop[0m
   8084c:	d503201f 	[38;5;142mnop[0m
   80850:	d503201f 	[38;5;142mnop[0m
   80854:	d503201f 	[38;5;142mnop[0m
   80858:	d503201f 	[38;5;142mnop[0m
   8085c:	d503201f 	[38;5;142mnop[0m
   80860:	d503201f 	[38;5;142mnop[0m
   80864:	d503201f 	[38;5;142mnop[0m
   80868:	d503201f 	[38;5;142mnop[0m
   8086c:	d503201f 	[38;5;142mnop[0m
   80870:	d503201f 	[38;5;142mnop[0m
   80874:	d503201f 	[38;5;142mnop[0m
   80878:	d503201f 	[38;5;142mnop[0m
   8087c:	d503201f 	[38;5;142mnop[0m
   80880:	140001d6 	[38;5;142mb[0m	[38;5;134m80fd8[0m <[38;5;40mirq_invalid_el1t[0m>
   80884:	d503201f 	[38;5;142mnop[0m
   80888:	d503201f 	[38;5;142mnop[0m
   8088c:	d503201f 	[38;5;142mnop[0m
   80890:	d503201f 	[38;5;142mnop[0m
   80894:	d503201f 	[38;5;142mnop[0m
   80898:	d503201f 	[38;5;142mnop[0m
   8089c:	d503201f 	[38;5;142mnop[0m
   808a0:	d503201f 	[38;5;142mnop[0m
   808a4:	d503201f 	[38;5;142mnop[0m
   808a8:	d503201f 	[38;5;142mnop[0m
   808ac:	d503201f 	[38;5;142mnop[0m
   808b0:	d503201f 	[38;5;142mnop[0m
   808b4:	d503201f 	[38;5;142mnop[0m
   808b8:	d503201f 	[38;5;142mnop[0m
   808bc:	d503201f 	[38;5;142mnop[0m
   808c0:	d503201f 	[38;5;142mnop[0m
   808c4:	d503201f 	[38;5;142mnop[0m
   808c8:	d503201f 	[38;5;142mnop[0m
   808cc:	d503201f 	[38;5;142mnop[0m
   808d0:	d503201f 	[38;5;142mnop[0m
   808d4:	d503201f 	[38;5;142mnop[0m
   808d8:	d503201f 	[38;5;142mnop[0m
   808dc:	d503201f 	[38;5;142mnop[0m
   808e0:	d503201f 	[38;5;142mnop[0m
   808e4:	d503201f 	[38;5;142mnop[0m
   808e8:	d503201f 	[38;5;142mnop[0m
   808ec:	d503201f 	[38;5;142mnop[0m
   808f0:	d503201f 	[38;5;142mnop[0m
   808f4:	d503201f 	[38;5;142mnop[0m
   808f8:	d503201f 	[38;5;142mnop[0m
   808fc:	d503201f 	[38;5;142mnop[0m
   80900:	140001cb 	[38;5;142mb[0m	[38;5;134m8102c[0m <[38;5;40mfiq_invalid_el1t[0m>
   80904:	d503201f 	[38;5;142mnop[0m
   80908:	d503201f 	[38;5;142mnop[0m
   8090c:	d503201f 	[38;5;142mnop[0m
   80910:	d503201f 	[38;5;142mnop[0m
   80914:	d503201f 	[38;5;142mnop[0m
   80918:	d503201f 	[38;5;142mnop[0m
   8091c:	d503201f 	[38;5;142mnop[0m
   80920:	d503201f 	[38;5;142mnop[0m
   80924:	d503201f 	[38;5;142mnop[0m
   80928:	d503201f 	[38;5;142mnop[0m
   8092c:	d503201f 	[38;5;142mnop[0m
   80930:	d503201f 	[38;5;142mnop[0m
   80934:	d503201f 	[38;5;142mnop[0m
   80938:	d503201f 	[38;5;142mnop[0m
   8093c:	d503201f 	[38;5;142mnop[0m
   80940:	d503201f 	[38;5;142mnop[0m
   80944:	d503201f 	[38;5;142mnop[0m
   80948:	d503201f 	[38;5;142mnop[0m
   8094c:	d503201f 	[38;5;142mnop[0m
   80950:	d503201f 	[38;5;142mnop[0m
   80954:	d503201f 	[38;5;142mnop[0m
   80958:	d503201f 	[38;5;142mnop[0m
   8095c:	d503201f 	[38;5;142mnop[0m
   80960:	d503201f 	[38;5;142mnop[0m
   80964:	d503201f 	[38;5;142mnop[0m
   80968:	d503201f 	[38;5;142mnop[0m
   8096c:	d503201f 	[38;5;142mnop[0m
   80970:	d503201f 	[38;5;142mnop[0m
   80974:	d503201f 	[38;5;142mnop[0m
   80978:	d503201f 	[38;5;142mnop[0m
   8097c:	d503201f 	[38;5;142mnop[0m
   80980:	140001c0 	[38;5;142mb[0m	[38;5;134m81080[0m <[38;5;40merror_invalid_el1t[0m>
   80984:	d503201f 	[38;5;142mnop[0m
   80988:	d503201f 	[38;5;142mnop[0m
   8098c:	d503201f 	[38;5;142mnop[0m
   80990:	d503201f 	[38;5;142mnop[0m
   80994:	d503201f 	[38;5;142mnop[0m
   80998:	d503201f 	[38;5;142mnop[0m
   8099c:	d503201f 	[38;5;142mnop[0m
   809a0:	d503201f 	[38;5;142mnop[0m
   809a4:	d503201f 	[38;5;142mnop[0m
   809a8:	d503201f 	[38;5;142mnop[0m
   809ac:	d503201f 	[38;5;142mnop[0m
   809b0:	d503201f 	[38;5;142mnop[0m
   809b4:	d503201f 	[38;5;142mnop[0m
   809b8:	d503201f 	[38;5;142mnop[0m
   809bc:	d503201f 	[38;5;142mnop[0m
   809c0:	d503201f 	[38;5;142mnop[0m
   809c4:	d503201f 	[38;5;142mnop[0m
   809c8:	d503201f 	[38;5;142mnop[0m
   809cc:	d503201f 	[38;5;142mnop[0m
   809d0:	d503201f 	[38;5;142mnop[0m
   809d4:	d503201f 	[38;5;142mnop[0m
   809d8:	d503201f 	[38;5;142mnop[0m
   809dc:	d503201f 	[38;5;142mnop[0m
   809e0:	d503201f 	[38;5;142mnop[0m
   809e4:	d503201f 	[38;5;142mnop[0m
   809e8:	d503201f 	[38;5;142mnop[0m
   809ec:	d503201f 	[38;5;142mnop[0m
   809f0:	d503201f 	[38;5;142mnop[0m
   809f4:	d503201f 	[38;5;142mnop[0m
   809f8:	d503201f 	[38;5;142mnop[0m
   809fc:	d503201f 	[38;5;142mnop[0m
   80a00:	140001b5 	[38;5;142mb[0m	[38;5;134m810d4[0m <[38;5;40msync_invalid_el1h[0m>
   80a04:	d503201f 	[38;5;142mnop[0m
   80a08:	d503201f 	[38;5;142mnop[0m
   80a0c:	d503201f 	[38;5;142mnop[0m
   80a10:	d503201f 	[38;5;142mnop[0m
   80a14:	d503201f 	[38;5;142mnop[0m
   80a18:	d503201f 	[38;5;142mnop[0m
   80a1c:	d503201f 	[38;5;142mnop[0m
   80a20:	d503201f 	[38;5;142mnop[0m
   80a24:	d503201f 	[38;5;142mnop[0m
   80a28:	d503201f 	[38;5;142mnop[0m
   80a2c:	d503201f 	[38;5;142mnop[0m
   80a30:	d503201f 	[38;5;142mnop[0m
   80a34:	d503201f 	[38;5;142mnop[0m
   80a38:	d503201f 	[38;5;142mnop[0m
   80a3c:	d503201f 	[38;5;142mnop[0m
   80a40:	d503201f 	[38;5;142mnop[0m
   80a44:	d503201f 	[38;5;142mnop[0m
   80a48:	d503201f 	[38;5;142mnop[0m
   80a4c:	d503201f 	[38;5;142mnop[0m
   80a50:	d503201f 	[38;5;142mnop[0m
   80a54:	d503201f 	[38;5;142mnop[0m
   80a58:	d503201f 	[38;5;142mnop[0m
   80a5c:	d503201f 	[38;5;142mnop[0m
   80a60:	d503201f 	[38;5;142mnop[0m
   80a64:	d503201f 	[38;5;142mnop[0m
   80a68:	d503201f 	[38;5;142mnop[0m
   80a6c:	d503201f 	[38;5;142mnop[0m
   80a70:	d503201f 	[38;5;142mnop[0m
   80a74:	d503201f 	[38;5;142mnop[0m
   80a78:	d503201f 	[38;5;142mnop[0m
   80a7c:	d503201f 	[38;5;142mnop[0m
   80a80:	1400027c 	[38;5;142mb[0m	[38;5;134m81470[0m <[38;5;40mhandle_el1_irq[0m>
   80a84:	d503201f 	[38;5;142mnop[0m
   80a88:	d503201f 	[38;5;142mnop[0m
   80a8c:	d503201f 	[38;5;142mnop[0m
   80a90:	d503201f 	[38;5;142mnop[0m
   80a94:	d503201f 	[38;5;142mnop[0m
   80a98:	d503201f 	[38;5;142mnop[0m
   80a9c:	d503201f 	[38;5;142mnop[0m
   80aa0:	d503201f 	[38;5;142mnop[0m
   80aa4:	d503201f 	[38;5;142mnop[0m
   80aa8:	d503201f 	[38;5;142mnop[0m
   80aac:	d503201f 	[38;5;142mnop[0m
   80ab0:	d503201f 	[38;5;142mnop[0m
   80ab4:	d503201f 	[38;5;142mnop[0m
   80ab8:	d503201f 	[38;5;142mnop[0m
   80abc:	d503201f 	[38;5;142mnop[0m
   80ac0:	d503201f 	[38;5;142mnop[0m
   80ac4:	d503201f 	[38;5;142mnop[0m
   80ac8:	d503201f 	[38;5;142mnop[0m
   80acc:	d503201f 	[38;5;142mnop[0m
   80ad0:	d503201f 	[38;5;142mnop[0m
   80ad4:	d503201f 	[38;5;142mnop[0m
   80ad8:	d503201f 	[38;5;142mnop[0m
   80adc:	d503201f 	[38;5;142mnop[0m
   80ae0:	d503201f 	[38;5;142mnop[0m
   80ae4:	d503201f 	[38;5;142mnop[0m
   80ae8:	d503201f 	[38;5;142mnop[0m
   80aec:	d503201f 	[38;5;142mnop[0m
   80af0:	d503201f 	[38;5;142mnop[0m
   80af4:	d503201f 	[38;5;142mnop[0m
   80af8:	d503201f 	[38;5;142mnop[0m
   80afc:	d503201f 	[38;5;142mnop[0m
   80b00:	1400018a 	[38;5;142mb[0m	[38;5;134m81128[0m <[38;5;40mfiq_invalid_el1h[0m>
   80b04:	d503201f 	[38;5;142mnop[0m
   80b08:	d503201f 	[38;5;142mnop[0m
   80b0c:	d503201f 	[38;5;142mnop[0m
   80b10:	d503201f 	[38;5;142mnop[0m
   80b14:	d503201f 	[38;5;142mnop[0m
   80b18:	d503201f 	[38;5;142mnop[0m
   80b1c:	d503201f 	[38;5;142mnop[0m
   80b20:	d503201f 	[38;5;142mnop[0m
   80b24:	d503201f 	[38;5;142mnop[0m
   80b28:	d503201f 	[38;5;142mnop[0m
   80b2c:	d503201f 	[38;5;142mnop[0m
   80b30:	d503201f 	[38;5;142mnop[0m
   80b34:	d503201f 	[38;5;142mnop[0m
   80b38:	d503201f 	[38;5;142mnop[0m
   80b3c:	d503201f 	[38;5;142mnop[0m
   80b40:	d503201f 	[38;5;142mnop[0m
   80b44:	d503201f 	[38;5;142mnop[0m
   80b48:	d503201f 	[38;5;142mnop[0m
   80b4c:	d503201f 	[38;5;142mnop[0m
   80b50:	d503201f 	[38;5;142mnop[0m
   80b54:	d503201f 	[38;5;142mnop[0m
   80b58:	d503201f 	[38;5;142mnop[0m
   80b5c:	d503201f 	[38;5;142mnop[0m
   80b60:	d503201f 	[38;5;142mnop[0m
   80b64:	d503201f 	[38;5;142mnop[0m
   80b68:	d503201f 	[38;5;142mnop[0m
   80b6c:	d503201f 	[38;5;142mnop[0m
   80b70:	d503201f 	[38;5;142mnop[0m
   80b74:	d503201f 	[38;5;142mnop[0m
   80b78:	d503201f 	[38;5;142mnop[0m
   80b7c:	d503201f 	[38;5;142mnop[0m
   80b80:	1400017f 	[38;5;142mb[0m	[38;5;134m8117c[0m <[38;5;40merror_invalid_el1h[0m>
   80b84:	d503201f 	[38;5;142mnop[0m
   80b88:	d503201f 	[38;5;142mnop[0m
   80b8c:	d503201f 	[38;5;142mnop[0m
   80b90:	d503201f 	[38;5;142mnop[0m
   80b94:	d503201f 	[38;5;142mnop[0m
   80b98:	d503201f 	[38;5;142mnop[0m
   80b9c:	d503201f 	[38;5;142mnop[0m
   80ba0:	d503201f 	[38;5;142mnop[0m
   80ba4:	d503201f 	[38;5;142mnop[0m
   80ba8:	d503201f 	[38;5;142mnop[0m
   80bac:	d503201f 	[38;5;142mnop[0m
   80bb0:	d503201f 	[38;5;142mnop[0m
   80bb4:	d503201f 	[38;5;142mnop[0m
   80bb8:	d503201f 	[38;5;142mnop[0m
   80bbc:	d503201f 	[38;5;142mnop[0m
   80bc0:	d503201f 	[38;5;142mnop[0m
   80bc4:	d503201f 	[38;5;142mnop[0m
   80bc8:	d503201f 	[38;5;142mnop[0m
   80bcc:	d503201f 	[38;5;142mnop[0m
   80bd0:	d503201f 	[38;5;142mnop[0m
   80bd4:	d503201f 	[38;5;142mnop[0m
   80bd8:	d503201f 	[38;5;142mnop[0m
   80bdc:	d503201f 	[38;5;142mnop[0m
   80be0:	d503201f 	[38;5;142mnop[0m
   80be4:	d503201f 	[38;5;142mnop[0m
   80be8:	d503201f 	[38;5;142mnop[0m
   80bec:	d503201f 	[38;5;142mnop[0m
   80bf0:	d503201f 	[38;5;142mnop[0m
   80bf4:	d503201f 	[38;5;142mnop[0m
   80bf8:	d503201f 	[38;5;142mnop[0m
   80bfc:	d503201f 	[38;5;142mnop[0m
   80c00:	14000174 	[38;5;142mb[0m	[38;5;134m811d0[0m <[38;5;40msync_invalid_el0_64[0m>
   80c04:	d503201f 	[38;5;142mnop[0m
   80c08:	d503201f 	[38;5;142mnop[0m
   80c0c:	d503201f 	[38;5;142mnop[0m
   80c10:	d503201f 	[38;5;142mnop[0m
   80c14:	d503201f 	[38;5;142mnop[0m
   80c18:	d503201f 	[38;5;142mnop[0m
   80c1c:	d503201f 	[38;5;142mnop[0m
   80c20:	d503201f 	[38;5;142mnop[0m
   80c24:	d503201f 	[38;5;142mnop[0m
   80c28:	d503201f 	[38;5;142mnop[0m
   80c2c:	d503201f 	[38;5;142mnop[0m
   80c30:	d503201f 	[38;5;142mnop[0m
   80c34:	d503201f 	[38;5;142mnop[0m
   80c38:	d503201f 	[38;5;142mnop[0m
   80c3c:	d503201f 	[38;5;142mnop[0m
   80c40:	d503201f 	[38;5;142mnop[0m
   80c44:	d503201f 	[38;5;142mnop[0m
   80c48:	d503201f 	[38;5;142mnop[0m
   80c4c:	d503201f 	[38;5;142mnop[0m
   80c50:	d503201f 	[38;5;142mnop[0m
   80c54:	d503201f 	[38;5;142mnop[0m
   80c58:	d503201f 	[38;5;142mnop[0m
   80c5c:	d503201f 	[38;5;142mnop[0m
   80c60:	d503201f 	[38;5;142mnop[0m
   80c64:	d503201f 	[38;5;142mnop[0m
   80c68:	d503201f 	[38;5;142mnop[0m
   80c6c:	d503201f 	[38;5;142mnop[0m
   80c70:	d503201f 	[38;5;142mnop[0m
   80c74:	d503201f 	[38;5;142mnop[0m
   80c78:	d503201f 	[38;5;142mnop[0m
   80c7c:	d503201f 	[38;5;142mnop[0m
   80c80:	14000169 	[38;5;142mb[0m	[38;5;134m81224[0m <[38;5;40mirq_invalid_el0_64[0m>
   80c84:	d503201f 	[38;5;142mnop[0m
   80c88:	d503201f 	[38;5;142mnop[0m
   80c8c:	d503201f 	[38;5;142mnop[0m
   80c90:	d503201f 	[38;5;142mnop[0m
   80c94:	d503201f 	[38;5;142mnop[0m
   80c98:	d503201f 	[38;5;142mnop[0m
   80c9c:	d503201f 	[38;5;142mnop[0m
   80ca0:	d503201f 	[38;5;142mnop[0m
   80ca4:	d503201f 	[38;5;142mnop[0m
   80ca8:	d503201f 	[38;5;142mnop[0m
   80cac:	d503201f 	[38;5;142mnop[0m
   80cb0:	d503201f 	[38;5;142mnop[0m
   80cb4:	d503201f 	[38;5;142mnop[0m
   80cb8:	d503201f 	[38;5;142mnop[0m
   80cbc:	d503201f 	[38;5;142mnop[0m
   80cc0:	d503201f 	[38;5;142mnop[0m
   80cc4:	d503201f 	[38;5;142mnop[0m
   80cc8:	d503201f 	[38;5;142mnop[0m
   80ccc:	d503201f 	[38;5;142mnop[0m
   80cd0:	d503201f 	[38;5;142mnop[0m
   80cd4:	d503201f 	[38;5;142mnop[0m
   80cd8:	d503201f 	[38;5;142mnop[0m
   80cdc:	d503201f 	[38;5;142mnop[0m
   80ce0:	d503201f 	[38;5;142mnop[0m
   80ce4:	d503201f 	[38;5;142mnop[0m
   80ce8:	d503201f 	[38;5;142mnop[0m
   80cec:	d503201f 	[38;5;142mnop[0m
   80cf0:	d503201f 	[38;5;142mnop[0m
   80cf4:	d503201f 	[38;5;142mnop[0m
   80cf8:	d503201f 	[38;5;142mnop[0m
   80cfc:	d503201f 	[38;5;142mnop[0m
   80d00:	1400015e 	[38;5;142mb[0m	[38;5;134m81278[0m <[38;5;40mfiq_invalid_el0_64[0m>
   80d04:	d503201f 	[38;5;142mnop[0m
   80d08:	d503201f 	[38;5;142mnop[0m
   80d0c:	d503201f 	[38;5;142mnop[0m
   80d10:	d503201f 	[38;5;142mnop[0m
   80d14:	d503201f 	[38;5;142mnop[0m
   80d18:	d503201f 	[38;5;142mnop[0m
   80d1c:	d503201f 	[38;5;142mnop[0m
   80d20:	d503201f 	[38;5;142mnop[0m
   80d24:	d503201f 	[38;5;142mnop[0m
   80d28:	d503201f 	[38;5;142mnop[0m
   80d2c:	d503201f 	[38;5;142mnop[0m
   80d30:	d503201f 	[38;5;142mnop[0m
   80d34:	d503201f 	[38;5;142mnop[0m
   80d38:	d503201f 	[38;5;142mnop[0m
   80d3c:	d503201f 	[38;5;142mnop[0m
   80d40:	d503201f 	[38;5;142mnop[0m
   80d44:	d503201f 	[38;5;142mnop[0m
   80d48:	d503201f 	[38;5;142mnop[0m
   80d4c:	d503201f 	[38;5;142mnop[0m
   80d50:	d503201f 	[38;5;142mnop[0m
   80d54:	d503201f 	[38;5;142mnop[0m
   80d58:	d503201f 	[38;5;142mnop[0m
   80d5c:	d503201f 	[38;5;142mnop[0m
   80d60:	d503201f 	[38;5;142mnop[0m
   80d64:	d503201f 	[38;5;142mnop[0m
   80d68:	d503201f 	[38;5;142mnop[0m
   80d6c:	d503201f 	[38;5;142mnop[0m
   80d70:	d503201f 	[38;5;142mnop[0m
   80d74:	d503201f 	[38;5;142mnop[0m
   80d78:	d503201f 	[38;5;142mnop[0m
   80d7c:	d503201f 	[38;5;142mnop[0m
   80d80:	14000153 	[38;5;142mb[0m	[38;5;134m812cc[0m <[38;5;40merror_invalid_el0_64[0m>
   80d84:	d503201f 	[38;5;142mnop[0m
   80d88:	d503201f 	[38;5;142mnop[0m
   80d8c:	d503201f 	[38;5;142mnop[0m
   80d90:	d503201f 	[38;5;142mnop[0m
   80d94:	d503201f 	[38;5;142mnop[0m
   80d98:	d503201f 	[38;5;142mnop[0m
   80d9c:	d503201f 	[38;5;142mnop[0m
   80da0:	d503201f 	[38;5;142mnop[0m
   80da4:	d503201f 	[38;5;142mnop[0m
   80da8:	d503201f 	[38;5;142mnop[0m
   80dac:	d503201f 	[38;5;142mnop[0m
   80db0:	d503201f 	[38;5;142mnop[0m
   80db4:	d503201f 	[38;5;142mnop[0m
   80db8:	d503201f 	[38;5;142mnop[0m
   80dbc:	d503201f 	[38;5;142mnop[0m
   80dc0:	d503201f 	[38;5;142mnop[0m
   80dc4:	d503201f 	[38;5;142mnop[0m
   80dc8:	d503201f 	[38;5;142mnop[0m
   80dcc:	d503201f 	[38;5;142mnop[0m
   80dd0:	d503201f 	[38;5;142mnop[0m
   80dd4:	d503201f 	[38;5;142mnop[0m
   80dd8:	d503201f 	[38;5;142mnop[0m
   80ddc:	d503201f 	[38;5;142mnop[0m
   80de0:	d503201f 	[38;5;142mnop[0m
   80de4:	d503201f 	[38;5;142mnop[0m
   80de8:	d503201f 	[38;5;142mnop[0m
   80dec:	d503201f 	[38;5;142mnop[0m
   80df0:	d503201f 	[38;5;142mnop[0m
   80df4:	d503201f 	[38;5;142mnop[0m
   80df8:	d503201f 	[38;5;142mnop[0m
   80dfc:	d503201f 	[38;5;142mnop[0m
   80e00:	14000148 	[38;5;142mb[0m	[38;5;134m81320[0m <[38;5;40msync_invalid_el0_32[0m>
   80e04:	d503201f 	[38;5;142mnop[0m
   80e08:	d503201f 	[38;5;142mnop[0m
   80e0c:	d503201f 	[38;5;142mnop[0m
   80e10:	d503201f 	[38;5;142mnop[0m
   80e14:	d503201f 	[38;5;142mnop[0m
   80e18:	d503201f 	[38;5;142mnop[0m
   80e1c:	d503201f 	[38;5;142mnop[0m
   80e20:	d503201f 	[38;5;142mnop[0m
   80e24:	d503201f 	[38;5;142mnop[0m
   80e28:	d503201f 	[38;5;142mnop[0m
   80e2c:	d503201f 	[38;5;142mnop[0m
   80e30:	d503201f 	[38;5;142mnop[0m
   80e34:	d503201f 	[38;5;142mnop[0m
   80e38:	d503201f 	[38;5;142mnop[0m
   80e3c:	d503201f 	[38;5;142mnop[0m
   80e40:	d503201f 	[38;5;142mnop[0m
   80e44:	d503201f 	[38;5;142mnop[0m
   80e48:	d503201f 	[38;5;142mnop[0m
   80e4c:	d503201f 	[38;5;142mnop[0m
   80e50:	d503201f 	[38;5;142mnop[0m
   80e54:	d503201f 	[38;5;142mnop[0m
   80e58:	d503201f 	[38;5;142mnop[0m
   80e5c:	d503201f 	[38;5;142mnop[0m
   80e60:	d503201f 	[38;5;142mnop[0m
   80e64:	d503201f 	[38;5;142mnop[0m
   80e68:	d503201f 	[38;5;142mnop[0m
   80e6c:	d503201f 	[38;5;142mnop[0m
   80e70:	d503201f 	[38;5;142mnop[0m
   80e74:	d503201f 	[38;5;142mnop[0m
   80e78:	d503201f 	[38;5;142mnop[0m
   80e7c:	d503201f 	[38;5;142mnop[0m
   80e80:	1400013d 	[38;5;142mb[0m	[38;5;134m81374[0m <[38;5;40mirq_invalid_el0_32[0m>
   80e84:	d503201f 	[38;5;142mnop[0m
   80e88:	d503201f 	[38;5;142mnop[0m
   80e8c:	d503201f 	[38;5;142mnop[0m
   80e90:	d503201f 	[38;5;142mnop[0m
   80e94:	d503201f 	[38;5;142mnop[0m
   80e98:	d503201f 	[38;5;142mnop[0m
   80e9c:	d503201f 	[38;5;142mnop[0m
   80ea0:	d503201f 	[38;5;142mnop[0m
   80ea4:	d503201f 	[38;5;142mnop[0m
   80ea8:	d503201f 	[38;5;142mnop[0m
   80eac:	d503201f 	[38;5;142mnop[0m
   80eb0:	d503201f 	[38;5;142mnop[0m
   80eb4:	d503201f 	[38;5;142mnop[0m
   80eb8:	d503201f 	[38;5;142mnop[0m
   80ebc:	d503201f 	[38;5;142mnop[0m
   80ec0:	d503201f 	[38;5;142mnop[0m
   80ec4:	d503201f 	[38;5;142mnop[0m
   80ec8:	d503201f 	[38;5;142mnop[0m
   80ecc:	d503201f 	[38;5;142mnop[0m
   80ed0:	d503201f 	[38;5;142mnop[0m
   80ed4:	d503201f 	[38;5;142mnop[0m
   80ed8:	d503201f 	[38;5;142mnop[0m
   80edc:	d503201f 	[38;5;142mnop[0m
   80ee0:	d503201f 	[38;5;142mnop[0m
   80ee4:	d503201f 	[38;5;142mnop[0m
   80ee8:	d503201f 	[38;5;142mnop[0m
   80eec:	d503201f 	[38;5;142mnop[0m
   80ef0:	d503201f 	[38;5;142mnop[0m
   80ef4:	d503201f 	[38;5;142mnop[0m
   80ef8:	d503201f 	[38;5;142mnop[0m
   80efc:	d503201f 	[38;5;142mnop[0m
   80f00:	14000132 	[38;5;142mb[0m	[38;5;134m813c8[0m <[38;5;40mfiq_invalid_el0_32[0m>
   80f04:	d503201f 	[38;5;142mnop[0m
   80f08:	d503201f 	[38;5;142mnop[0m
   80f0c:	d503201f 	[38;5;142mnop[0m
   80f10:	d503201f 	[38;5;142mnop[0m
   80f14:	d503201f 	[38;5;142mnop[0m
   80f18:	d503201f 	[38;5;142mnop[0m
   80f1c:	d503201f 	[38;5;142mnop[0m
   80f20:	d503201f 	[38;5;142mnop[0m
   80f24:	d503201f 	[38;5;142mnop[0m
   80f28:	d503201f 	[38;5;142mnop[0m
   80f2c:	d503201f 	[38;5;142mnop[0m
   80f30:	d503201f 	[38;5;142mnop[0m
   80f34:	d503201f 	[38;5;142mnop[0m
   80f38:	d503201f 	[38;5;142mnop[0m
   80f3c:	d503201f 	[38;5;142mnop[0m
   80f40:	d503201f 	[38;5;142mnop[0m
   80f44:	d503201f 	[38;5;142mnop[0m
   80f48:	d503201f 	[38;5;142mnop[0m
   80f4c:	d503201f 	[38;5;142mnop[0m
   80f50:	d503201f 	[38;5;142mnop[0m
   80f54:	d503201f 	[38;5;142mnop[0m
   80f58:	d503201f 	[38;5;142mnop[0m
   80f5c:	d503201f 	[38;5;142mnop[0m
   80f60:	d503201f 	[38;5;142mnop[0m
   80f64:	d503201f 	[38;5;142mnop[0m
   80f68:	d503201f 	[38;5;142mnop[0m
   80f6c:	d503201f 	[38;5;142mnop[0m
   80f70:	d503201f 	[38;5;142mnop[0m
   80f74:	d503201f 	[38;5;142mnop[0m
   80f78:	d503201f 	[38;5;142mnop[0m
   80f7c:	d503201f 	[38;5;142mnop[0m
   80f80:	14000127 	[38;5;142mb[0m	[38;5;134m8141c[0m <[38;5;40merror_invalid_el0_32[0m>

0000000000080f84 <sync_invalid_el1t>:
   80f84:	d10403ff 	[38;5;142msub[0m	[38;5;27msp[0m, [38;5;27msp[0m, [38;5;134m#0x100[0m
   80f88:	a90007e0 	[38;5;142mstp[0m	[38;5;27mx0[0m, [38;5;27mx1[0m, [[38;5;27msp[0m]
   80f8c:	a9010fe2 	[38;5;142mstp[0m	[38;5;27mx2[0m, [38;5;27mx3[0m, [[38;5;27msp[0m, [38;5;134m#16[0m]
   80f90:	a90217e4 	[38;5;142mstp[0m	[38;5;27mx4[0m, [38;5;27mx5[0m, [[38;5;27msp[0m, [38;5;134m#32[0m]
   80f94:	a9031fe6 	[38;5;142mstp[0m	[38;5;27mx6[0m, [38;5;27mx7[0m, [[38;5;27msp[0m, [38;5;134m#48[0m]
   80f98:	a90427e8 	[38;5;142mstp[0m	[38;5;27mx8[0m, [38;5;27mx9[0m, [[38;5;27msp[0m, [38;5;134m#64[0m]
   80f9c:	a9052fea 	[38;5;142mstp[0m	[38;5;27mx10[0m, [38;5;27mx11[0m, [[38;5;27msp[0m, [38;5;134m#80[0m]
   80fa0:	a90637ec 	[38;5;142mstp[0m	[38;5;27mx12[0m, [38;5;27mx13[0m, [[38;5;27msp[0m, [38;5;134m#96[0m]
   80fa4:	a9073fee 	[38;5;142mstp[0m	[38;5;27mx14[0m, [38;5;27mx15[0m, [[38;5;27msp[0m, [38;5;134m#112[0m]
   80fa8:	a90847f0 	[38;5;142mstp[0m	[38;5;27mx16[0m, [38;5;27mx17[0m, [[38;5;27msp[0m, [38;5;134m#128[0m]
   80fac:	a9094ff2 	[38;5;142mstp[0m	[38;5;27mx18[0m, [38;5;27mx19[0m, [[38;5;27msp[0m, [38;5;134m#144[0m]
   80fb0:	a90a57f4 	[38;5;142mstp[0m	[38;5;27mx20[0m, [38;5;27mx21[0m, [[38;5;27msp[0m, [38;5;134m#160[0m]
   80fb4:	a90b5ff6 	[38;5;142mstp[0m	[38;5;27mx22[0m, [38;5;27mx23[0m, [[38;5;27msp[0m, [38;5;134m#176[0m]
   80fb8:	a90c67f8 	[38;5;142mstp[0m	[38;5;27mx24[0m, [38;5;27mx25[0m, [[38;5;27msp[0m, [38;5;134m#192[0m]
   80fbc:	a90d6ffa 	[38;5;142mstp[0m	[38;5;27mx26[0m, [38;5;27mx27[0m, [[38;5;27msp[0m, [38;5;134m#208[0m]
   80fc0:	a90e77fc 	[38;5;142mstp[0m	[38;5;27mx28[0m, [38;5;27mx29[0m, [[38;5;27msp[0m, [38;5;134m#224[0m]
   80fc4:	f9007bfe 	[38;5;142mstr[0m	[38;5;27mx30[0m, [[38;5;27msp[0m, [38;5;134m#240[0m]
   80fc8:	d2800000 	[38;5;142mmov[0m	[38;5;27mx0[0m, [38;5;134m#0x0                   [0m[38;5;250m	// #0[0m
   80fcc:	d5385201 	[38;5;142mmrs[0m	[38;5;27mx1[0m, [38;5;27mesr_el1[0m
   80fd0:	d5384022 	[38;5;142mmrs[0m	[38;5;27mx2[0m, [38;5;27melr_el1[0m
   80fd4:	1400014b 	[38;5;142mb[0m	[38;5;134m81500[0m <[38;5;40merr_hang[0m>

0000000000080fd8 <irq_invalid_el1t>:
   80fd8:	d10403ff 	[38;5;142msub[0m	[38;5;27msp[0m, [38;5;27msp[0m, [38;5;134m#0x100[0m
   80fdc:	a90007e0 	[38;5;142mstp[0m	[38;5;27mx0[0m, [38;5;27mx1[0m, [[38;5;27msp[0m]
   80fe0:	a9010fe2 	[38;5;142mstp[0m	[38;5;27mx2[0m, [38;5;27mx3[0m, [[38;5;27msp[0m, [38;5;134m#16[0m]
   80fe4:	a90217e4 	[38;5;142mstp[0m	[38;5;27mx4[0m, [38;5;27mx5[0m, [[38;5;27msp[0m, [38;5;134m#32[0m]
   80fe8:	a9031fe6 	[38;5;142mstp[0m	[38;5;27mx6[0m, [38;5;27mx7[0m, [[38;5;27msp[0m, [38;5;134m#48[0m]
   80fec:	a90427e8 	[38;5;142mstp[0m	[38;5;27mx8[0m, [38;5;27mx9[0m, [[38;5;27msp[0m, [38;5;134m#64[0m]
   80ff0:	a9052fea 	[38;5;142mstp[0m	[38;5;27mx10[0m, [38;5;27mx11[0m, [[38;5;27msp[0m, [38;5;134m#80[0m]
   80ff4:	a90637ec 	[38;5;142mstp[0m	[38;5;27mx12[0m, [38;5;27mx13[0m, [[38;5;27msp[0m, [38;5;134m#96[0m]
   80ff8:	a9073fee 	[38;5;142mstp[0m	[38;5;27mx14[0m, [38;5;27mx15[0m, [[38;5;27msp[0m, [38;5;134m#112[0m]
   80ffc:	a90847f0 	[38;5;142mstp[0m	[38;5;27mx16[0m, [38;5;27mx17[0m, [[38;5;27msp[0m, [38;5;134m#128[0m]
   81000:	a9094ff2 	[38;5;142mstp[0m	[38;5;27mx18[0m, [38;5;27mx19[0m, [[38;5;27msp[0m, [38;5;134m#144[0m]
   81004:	a90a57f4 	[38;5;142mstp[0m	[38;5;27mx20[0m, [38;5;27mx21[0m, [[38;5;27msp[0m, [38;5;134m#160[0m]
   81008:	a90b5ff6 	[38;5;142mstp[0m	[38;5;27mx22[0m, [38;5;27mx23[0m, [[38;5;27msp[0m, [38;5;134m#176[0m]
   8100c:	a90c67f8 	[38;5;142mstp[0m	[38;5;27mx24[0m, [38;5;27mx25[0m, [[38;5;27msp[0m, [38;5;134m#192[0m]
   81010:	a90d6ffa 	[38;5;142mstp[0m	[38;5;27mx26[0m, [38;5;27mx27[0m, [[38;5;27msp[0m, [38;5;134m#208[0m]
   81014:	a90e77fc 	[38;5;142mstp[0m	[38;5;27mx28[0m, [38;5;27mx29[0m, [[38;5;27msp[0m, [38;5;134m#224[0m]
   81018:	f9007bfe 	[38;5;142mstr[0m	[38;5;27mx30[0m, [[38;5;27msp[0m, [38;5;134m#240[0m]
   8101c:	d2800020 	[38;5;142mmov[0m	[38;5;27mx0[0m, [38;5;134m#0x1                   [0m[38;5;250m	// #1[0m
   81020:	d5385201 	[38;5;142mmrs[0m	[38;5;27mx1[0m, [38;5;27mesr_el1[0m
   81024:	d5384022 	[38;5;142mmrs[0m	[38;5;27mx2[0m, [38;5;27melr_el1[0m
   81028:	14000136 	[38;5;142mb[0m	[38;5;134m81500[0m <[38;5;40merr_hang[0m>

000000000008102c <fiq_invalid_el1t>:
   8102c:	d10403ff 	[38;5;142msub[0m	[38;5;27msp[0m, [38;5;27msp[0m, [38;5;134m#0x100[0m
   81030:	a90007e0 	[38;5;142mstp[0m	[38;5;27mx0[0m, [38;5;27mx1[0m, [[38;5;27msp[0m]
   81034:	a9010fe2 	[38;5;142mstp[0m	[38;5;27mx2[0m, [38;5;27mx3[0m, [[38;5;27msp[0m, [38;5;134m#16[0m]
   81038:	a90217e4 	[38;5;142mstp[0m	[38;5;27mx4[0m, [38;5;27mx5[0m, [[38;5;27msp[0m, [38;5;134m#32[0m]
   8103c:	a9031fe6 	[38;5;142mstp[0m	[38;5;27mx6[0m, [38;5;27mx7[0m, [[38;5;27msp[0m, [38;5;134m#48[0m]
   81040:	a90427e8 	[38;5;142mstp[0m	[38;5;27mx8[0m, [38;5;27mx9[0m, [[38;5;27msp[0m, [38;5;134m#64[0m]
   81044:	a9052fea 	[38;5;142mstp[0m	[38;5;27mx10[0m, [38;5;27mx11[0m, [[38;5;27msp[0m, [38;5;134m#80[0m]
   81048:	a90637ec 	[38;5;142mstp[0m	[38;5;27mx12[0m, [38;5;27mx13[0m, [[38;5;27msp[0m, [38;5;134m#96[0m]
   8104c:	a9073fee 	[38;5;142mstp[0m	[38;5;27mx14[0m, [38;5;27mx15[0m, [[38;5;27msp[0m, [38;5;134m#112[0m]
   81050:	a90847f0 	[38;5;142mstp[0m	[38;5;27mx16[0m, [38;5;27mx17[0m, [[38;5;27msp[0m, [38;5;134m#128[0m]
   81054:	a9094ff2 	[38;5;142mstp[0m	[38;5;27mx18[0m, [38;5;27mx19[0m, [[38;5;27msp[0m, [38;5;134m#144[0m]
   81058:	a90a57f4 	[38;5;142mstp[0m	[38;5;27mx20[0m, [38;5;27mx21[0m, [[38;5;27msp[0m, [38;5;134m#160[0m]
   8105c:	a90b5ff6 	[38;5;142mstp[0m	[38;5;27mx22[0m, [38;5;27mx23[0m, [[38;5;27msp[0m, [38;5;134m#176[0m]
   81060:	a90c67f8 	[38;5;142mstp[0m	[38;5;27mx24[0m, [38;5;27mx25[0m, [[38;5;27msp[0m, [38;5;134m#192[0m]
   81064:	a90d6ffa 	[38;5;142mstp[0m	[38;5;27mx26[0m, [38;5;27mx27[0m, [[38;5;27msp[0m, [38;5;134m#208[0m]
   81068:	a90e77fc 	[38;5;142mstp[0m	[38;5;27mx28[0m, [38;5;27mx29[0m, [[38;5;27msp[0m, [38;5;134m#224[0m]
   8106c:	f9007bfe 	[38;5;142mstr[0m	[38;5;27mx30[0m, [[38;5;27msp[0m, [38;5;134m#240[0m]
   81070:	d2800040 	[38;5;142mmov[0m	[38;5;27mx0[0m, [38;5;134m#0x2                   [0m[38;5;250m	// #2[0m
   81074:	d5385201 	[38;5;142mmrs[0m	[38;5;27mx1[0m, [38;5;27mesr_el1[0m
   81078:	d5384022 	[38;5;142mmrs[0m	[38;5;27mx2[0m, [38;5;27melr_el1[0m
   8107c:	14000121 	[38;5;142mb[0m	[38;5;134m81500[0m <[38;5;40merr_hang[0m>

0000000000081080 <error_invalid_el1t>:
   81080:	d10403ff 	[38;5;142msub[0m	[38;5;27msp[0m, [38;5;27msp[0m, [38;5;134m#0x100[0m
   81084:	a90007e0 	[38;5;142mstp[0m	[38;5;27mx0[0m, [38;5;27mx1[0m, [[38;5;27msp[0m]
   81088:	a9010fe2 	[38;5;142mstp[0m	[38;5;27mx2[0m, [38;5;27mx3[0m, [[38;5;27msp[0m, [38;5;134m#16[0m]
   8108c:	a90217e4 	[38;5;142mstp[0m	[38;5;27mx4[0m, [38;5;27mx5[0m, [[38;5;27msp[0m, [38;5;134m#32[0m]
   81090:	a9031fe6 	[38;5;142mstp[0m	[38;5;27mx6[0m, [38;5;27mx7[0m, [[38;5;27msp[0m, [38;5;134m#48[0m]
   81094:	a90427e8 	[38;5;142mstp[0m	[38;5;27mx8[0m, [38;5;27mx9[0m, [[38;5;27msp[0m, [38;5;134m#64[0m]
   81098:	a9052fea 	[38;5;142mstp[0m	[38;5;27mx10[0m, [38;5;27mx11[0m, [[38;5;27msp[0m, [38;5;134m#80[0m]
   8109c:	a90637ec 	[38;5;142mstp[0m	[38;5;27mx12[0m, [38;5;27mx13[0m, [[38;5;27msp[0m, [38;5;134m#96[0m]
   810a0:	a9073fee 	[38;5;142mstp[0m	[38;5;27mx14[0m, [38;5;27mx15[0m, [[38;5;27msp[0m, [38;5;134m#112[0m]
   810a4:	a90847f0 	[38;5;142mstp[0m	[38;5;27mx16[0m, [38;5;27mx17[0m, [[38;5;27msp[0m, [38;5;134m#128[0m]
   810a8:	a9094ff2 	[38;5;142mstp[0m	[38;5;27mx18[0m, [38;5;27mx19[0m, [[38;5;27msp[0m, [38;5;134m#144[0m]
   810ac:	a90a57f4 	[38;5;142mstp[0m	[38;5;27mx20[0m, [38;5;27mx21[0m, [[38;5;27msp[0m, [38;5;134m#160[0m]
   810b0:	a90b5ff6 	[38;5;142mstp[0m	[38;5;27mx22[0m, [38;5;27mx23[0m, [[38;5;27msp[0m, [38;5;134m#176[0m]
   810b4:	a90c67f8 	[38;5;142mstp[0m	[38;5;27mx24[0m, [38;5;27mx25[0m, [[38;5;27msp[0m, [38;5;134m#192[0m]
   810b8:	a90d6ffa 	[38;5;142mstp[0m	[38;5;27mx26[0m, [38;5;27mx27[0m, [[38;5;27msp[0m, [38;5;134m#208[0m]
   810bc:	a90e77fc 	[38;5;142mstp[0m	[38;5;27mx28[0m, [38;5;27mx29[0m, [[38;5;27msp[0m, [38;5;134m#224[0m]
   810c0:	f9007bfe 	[38;5;142mstr[0m	[38;5;27mx30[0m, [[38;5;27msp[0m, [38;5;134m#240[0m]
   810c4:	d2800060 	[38;5;142mmov[0m	[38;5;27mx0[0m, [38;5;134m#0x3                   [0m[38;5;250m	// #3[0m
   810c8:	d5385201 	[38;5;142mmrs[0m	[38;5;27mx1[0m, [38;5;27mesr_el1[0m
   810cc:	d5384022 	[38;5;142mmrs[0m	[38;5;27mx2[0m, [38;5;27melr_el1[0m
   810d0:	1400010c 	[38;5;142mb[0m	[38;5;134m81500[0m <[38;5;40merr_hang[0m>

00000000000810d4 <sync_invalid_el1h>:
   810d4:	d10403ff 	[38;5;142msub[0m	[38;5;27msp[0m, [38;5;27msp[0m, [38;5;134m#0x100[0m
   810d8:	a90007e0 	[38;5;142mstp[0m	[38;5;27mx0[0m, [38;5;27mx1[0m, [[38;5;27msp[0m]
   810dc:	a9010fe2 	[38;5;142mstp[0m	[38;5;27mx2[0m, [38;5;27mx3[0m, [[38;5;27msp[0m, [38;5;134m#16[0m]
   810e0:	a90217e4 	[38;5;142mstp[0m	[38;5;27mx4[0m, [38;5;27mx5[0m, [[38;5;27msp[0m, [38;5;134m#32[0m]
   810e4:	a9031fe6 	[38;5;142mstp[0m	[38;5;27mx6[0m, [38;5;27mx7[0m, [[38;5;27msp[0m, [38;5;134m#48[0m]
   810e8:	a90427e8 	[38;5;142mstp[0m	[38;5;27mx8[0m, [38;5;27mx9[0m, [[38;5;27msp[0m, [38;5;134m#64[0m]
   810ec:	a9052fea 	[38;5;142mstp[0m	[38;5;27mx10[0m, [38;5;27mx11[0m, [[38;5;27msp[0m, [38;5;134m#80[0m]
   810f0:	a90637ec 	[38;5;142mstp[0m	[38;5;27mx12[0m, [38;5;27mx13[0m, [[38;5;27msp[0m, [38;5;134m#96[0m]
   810f4:	a9073fee 	[38;5;142mstp[0m	[38;5;27mx14[0m, [38;5;27mx15[0m, [[38;5;27msp[0m, [38;5;134m#112[0m]
   810f8:	a90847f0 	[38;5;142mstp[0m	[38;5;27mx16[0m, [38;5;27mx17[0m, [[38;5;27msp[0m, [38;5;134m#128[0m]
   810fc:	a9094ff2 	[38;5;142mstp[0m	[38;5;27mx18[0m, [38;5;27mx19[0m, [[38;5;27msp[0m, [38;5;134m#144[0m]
   81100:	a90a57f4 	[38;5;142mstp[0m	[38;5;27mx20[0m, [38;5;27mx21[0m, [[38;5;27msp[0m, [38;5;134m#160[0m]
   81104:	a90b5ff6 	[38;5;142mstp[0m	[38;5;27mx22[0m, [38;5;27mx23[0m, [[38;5;27msp[0m, [38;5;134m#176[0m]
   81108:	a90c67f8 	[38;5;142mstp[0m	[38;5;27mx24[0m, [38;5;27mx25[0m, [[38;5;27msp[0m, [38;5;134m#192[0m]
   8110c:	a90d6ffa 	[38;5;142mstp[0m	[38;5;27mx26[0m, [38;5;27mx27[0m, [[38;5;27msp[0m, [38;5;134m#208[0m]
   81110:	a90e77fc 	[38;5;142mstp[0m	[38;5;27mx28[0m, [38;5;27mx29[0m, [[38;5;27msp[0m, [38;5;134m#224[0m]
   81114:	f9007bfe 	[38;5;142mstr[0m	[38;5;27mx30[0m, [[38;5;27msp[0m, [38;5;134m#240[0m]
   81118:	d2800080 	[38;5;142mmov[0m	[38;5;27mx0[0m, [38;5;134m#0x4                   [0m[38;5;250m	// #4[0m
   8111c:	d5385201 	[38;5;142mmrs[0m	[38;5;27mx1[0m, [38;5;27mesr_el1[0m
   81120:	d5384022 	[38;5;142mmrs[0m	[38;5;27mx2[0m, [38;5;27melr_el1[0m
   81124:	140000f7 	[38;5;142mb[0m	[38;5;134m81500[0m <[38;5;40merr_hang[0m>

0000000000081128 <fiq_invalid_el1h>:
   81128:	d10403ff 	[38;5;142msub[0m	[38;5;27msp[0m, [38;5;27msp[0m, [38;5;134m#0x100[0m
   8112c:	a90007e0 	[38;5;142mstp[0m	[38;5;27mx0[0m, [38;5;27mx1[0m, [[38;5;27msp[0m]
   81130:	a9010fe2 	[38;5;142mstp[0m	[38;5;27mx2[0m, [38;5;27mx3[0m, [[38;5;27msp[0m, [38;5;134m#16[0m]
   81134:	a90217e4 	[38;5;142mstp[0m	[38;5;27mx4[0m, [38;5;27mx5[0m, [[38;5;27msp[0m, [38;5;134m#32[0m]
   81138:	a9031fe6 	[38;5;142mstp[0m	[38;5;27mx6[0m, [38;5;27mx7[0m, [[38;5;27msp[0m, [38;5;134m#48[0m]
   8113c:	a90427e8 	[38;5;142mstp[0m	[38;5;27mx8[0m, [38;5;27mx9[0m, [[38;5;27msp[0m, [38;5;134m#64[0m]
   81140:	a9052fea 	[38;5;142mstp[0m	[38;5;27mx10[0m, [38;5;27mx11[0m, [[38;5;27msp[0m, [38;5;134m#80[0m]
   81144:	a90637ec 	[38;5;142mstp[0m	[38;5;27mx12[0m, [38;5;27mx13[0m, [[38;5;27msp[0m, [38;5;134m#96[0m]
   81148:	a9073fee 	[38;5;142mstp[0m	[38;5;27mx14[0m, [38;5;27mx15[0m, [[38;5;27msp[0m, [38;5;134m#112[0m]
   8114c:	a90847f0 	[38;5;142mstp[0m	[38;5;27mx16[0m, [38;5;27mx17[0m, [[38;5;27msp[0m, [38;5;134m#128[0m]
   81150:	a9094ff2 	[38;5;142mstp[0m	[38;5;27mx18[0m, [38;5;27mx19[0m, [[38;5;27msp[0m, [38;5;134m#144[0m]
   81154:	a90a57f4 	[38;5;142mstp[0m	[38;5;27mx20[0m, [38;5;27mx21[0m, [[38;5;27msp[0m, [38;5;134m#160[0m]
   81158:	a90b5ff6 	[38;5;142mstp[0m	[38;5;27mx22[0m, [38;5;27mx23[0m, [[38;5;27msp[0m, [38;5;134m#176[0m]
   8115c:	a90c67f8 	[38;5;142mstp[0m	[38;5;27mx24[0m, [38;5;27mx25[0m, [[38;5;27msp[0m, [38;5;134m#192[0m]
   81160:	a90d6ffa 	[38;5;142mstp[0m	[38;5;27mx26[0m, [38;5;27mx27[0m, [[38;5;27msp[0m, [38;5;134m#208[0m]
   81164:	a90e77fc 	[38;5;142mstp[0m	[38;5;27mx28[0m, [38;5;27mx29[0m, [[38;5;27msp[0m, [38;5;134m#224[0m]
   81168:	f9007bfe 	[38;5;142mstr[0m	[38;5;27mx30[0m, [[38;5;27msp[0m, [38;5;134m#240[0m]
   8116c:	d28000c0 	[38;5;142mmov[0m	[38;5;27mx0[0m, [38;5;134m#0x6                   [0m[38;5;250m	// #6[0m
   81170:	d5385201 	[38;5;142mmrs[0m	[38;5;27mx1[0m, [38;5;27mesr_el1[0m
   81174:	d5384022 	[38;5;142mmrs[0m	[38;5;27mx2[0m, [38;5;27melr_el1[0m
   81178:	140000e2 	[38;5;142mb[0m	[38;5;134m81500[0m <[38;5;40merr_hang[0m>

000000000008117c <error_invalid_el1h>:
   8117c:	d10403ff 	[38;5;142msub[0m	[38;5;27msp[0m, [38;5;27msp[0m, [38;5;134m#0x100[0m
   81180:	a90007e0 	[38;5;142mstp[0m	[38;5;27mx0[0m, [38;5;27mx1[0m, [[38;5;27msp[0m]
   81184:	a9010fe2 	[38;5;142mstp[0m	[38;5;27mx2[0m, [38;5;27mx3[0m, [[38;5;27msp[0m, [38;5;134m#16[0m]
   81188:	a90217e4 	[38;5;142mstp[0m	[38;5;27mx4[0m, [38;5;27mx5[0m, [[38;5;27msp[0m, [38;5;134m#32[0m]
   8118c:	a9031fe6 	[38;5;142mstp[0m	[38;5;27mx6[0m, [38;5;27mx7[0m, [[38;5;27msp[0m, [38;5;134m#48[0m]
   81190:	a90427e8 	[38;5;142mstp[0m	[38;5;27mx8[0m, [38;5;27mx9[0m, [[38;5;27msp[0m, [38;5;134m#64[0m]
   81194:	a9052fea 	[38;5;142mstp[0m	[38;5;27mx10[0m, [38;5;27mx11[0m, [[38;5;27msp[0m, [38;5;134m#80[0m]
   81198:	a90637ec 	[38;5;142mstp[0m	[38;5;27mx12[0m, [38;5;27mx13[0m, [[38;5;27msp[0m, [38;5;134m#96[0m]
   8119c:	a9073fee 	[38;5;142mstp[0m	[38;5;27mx14[0m, [38;5;27mx15[0m, [[38;5;27msp[0m, [38;5;134m#112[0m]
   811a0:	a90847f0 	[38;5;142mstp[0m	[38;5;27mx16[0m, [38;5;27mx17[0m, [[38;5;27msp[0m, [38;5;134m#128[0m]
   811a4:	a9094ff2 	[38;5;142mstp[0m	[38;5;27mx18[0m, [38;5;27mx19[0m, [[38;5;27msp[0m, [38;5;134m#144[0m]
   811a8:	a90a57f4 	[38;5;142mstp[0m	[38;5;27mx20[0m, [38;5;27mx21[0m, [[38;5;27msp[0m, [38;5;134m#160[0m]
   811ac:	a90b5ff6 	[38;5;142mstp[0m	[38;5;27mx22[0m, [38;5;27mx23[0m, [[38;5;27msp[0m, [38;5;134m#176[0m]
   811b0:	a90c67f8 	[38;5;142mstp[0m	[38;5;27mx24[0m, [38;5;27mx25[0m, [[38;5;27msp[0m, [38;5;134m#192[0m]
   811b4:	a90d6ffa 	[38;5;142mstp[0m	[38;5;27mx26[0m, [38;5;27mx27[0m, [[38;5;27msp[0m, [38;5;134m#208[0m]
   811b8:	a90e77fc 	[38;5;142mstp[0m	[38;5;27mx28[0m, [38;5;27mx29[0m, [[38;5;27msp[0m, [38;5;134m#224[0m]
   811bc:	f9007bfe 	[38;5;142mstr[0m	[38;5;27mx30[0m, [[38;5;27msp[0m, [38;5;134m#240[0m]
   811c0:	d28000e0 	[38;5;142mmov[0m	[38;5;27mx0[0m, [38;5;134m#0x7                   [0m[38;5;250m	// #7[0m
   811c4:	d5385201 	[38;5;142mmrs[0m	[38;5;27mx1[0m, [38;5;27mesr_el1[0m
   811c8:	d5384022 	[38;5;142mmrs[0m	[38;5;27mx2[0m, [38;5;27melr_el1[0m
   811cc:	140000cd 	[38;5;142mb[0m	[38;5;134m81500[0m <[38;5;40merr_hang[0m>

00000000000811d0 <sync_invalid_el0_64>:
   811d0:	d10403ff 	[38;5;142msub[0m	[38;5;27msp[0m, [38;5;27msp[0m, [38;5;134m#0x100[0m
   811d4:	a90007e0 	[38;5;142mstp[0m	[38;5;27mx0[0m, [38;5;27mx1[0m, [[38;5;27msp[0m]
   811d8:	a9010fe2 	[38;5;142mstp[0m	[38;5;27mx2[0m, [38;5;27mx3[0m, [[38;5;27msp[0m, [38;5;134m#16[0m]
   811dc:	a90217e4 	[38;5;142mstp[0m	[38;5;27mx4[0m, [38;5;27mx5[0m, [[38;5;27msp[0m, [38;5;134m#32[0m]
   811e0:	a9031fe6 	[38;5;142mstp[0m	[38;5;27mx6[0m, [38;5;27mx7[0m, [[38;5;27msp[0m, [38;5;134m#48[0m]
   811e4:	a90427e8 	[38;5;142mstp[0m	[38;5;27mx8[0m, [38;5;27mx9[0m, [[38;5;27msp[0m, [38;5;134m#64[0m]
   811e8:	a9052fea 	[38;5;142mstp[0m	[38;5;27mx10[0m, [38;5;27mx11[0m, [[38;5;27msp[0m, [38;5;134m#80[0m]
   811ec:	a90637ec 	[38;5;142mstp[0m	[38;5;27mx12[0m, [38;5;27mx13[0m, [[38;5;27msp[0m, [38;5;134m#96[0m]
   811f0:	a9073fee 	[38;5;142mstp[0m	[38;5;27mx14[0m, [38;5;27mx15[0m, [[38;5;27msp[0m, [38;5;134m#112[0m]
   811f4:	a90847f0 	[38;5;142mstp[0m	[38;5;27mx16[0m, [38;5;27mx17[0m, [[38;5;27msp[0m, [38;5;134m#128[0m]
   811f8:	a9094ff2 	[38;5;142mstp[0m	[38;5;27mx18[0m, [38;5;27mx19[0m, [[38;5;27msp[0m, [38;5;134m#144[0m]
   811fc:	a90a57f4 	[38;5;142mstp[0m	[38;5;27mx20[0m, [38;5;27mx21[0m, [[38;5;27msp[0m, [38;5;134m#160[0m]
   81200:	a90b5ff6 	[38;5;142mstp[0m	[38;5;27mx22[0m, [38;5;27mx23[0m, [[38;5;27msp[0m, [38;5;134m#176[0m]
   81204:	a90c67f8 	[38;5;142mstp[0m	[38;5;27mx24[0m, [38;5;27mx25[0m, [[38;5;27msp[0m, [38;5;134m#192[0m]
   81208:	a90d6ffa 	[38;5;142mstp[0m	[38;5;27mx26[0m, [38;5;27mx27[0m, [[38;5;27msp[0m, [38;5;134m#208[0m]
   8120c:	a90e77fc 	[38;5;142mstp[0m	[38;5;27mx28[0m, [38;5;27mx29[0m, [[38;5;27msp[0m, [38;5;134m#224[0m]
   81210:	f9007bfe 	[38;5;142mstr[0m	[38;5;27mx30[0m, [[38;5;27msp[0m, [38;5;134m#240[0m]
   81214:	d2800100 	[38;5;142mmov[0m	[38;5;27mx0[0m, [38;5;134m#0x8                   [0m[38;5;250m	// #8[0m
   81218:	d5385201 	[38;5;142mmrs[0m	[38;5;27mx1[0m, [38;5;27mesr_el1[0m
   8121c:	d5384022 	[38;5;142mmrs[0m	[38;5;27mx2[0m, [38;5;27melr_el1[0m
   81220:	140000b8 	[38;5;142mb[0m	[38;5;134m81500[0m <[38;5;40merr_hang[0m>

0000000000081224 <irq_invalid_el0_64>:
   81224:	d10403ff 	[38;5;142msub[0m	[38;5;27msp[0m, [38;5;27msp[0m, [38;5;134m#0x100[0m
   81228:	a90007e0 	[38;5;142mstp[0m	[38;5;27mx0[0m, [38;5;27mx1[0m, [[38;5;27msp[0m]
   8122c:	a9010fe2 	[38;5;142mstp[0m	[38;5;27mx2[0m, [38;5;27mx3[0m, [[38;5;27msp[0m, [38;5;134m#16[0m]
   81230:	a90217e4 	[38;5;142mstp[0m	[38;5;27mx4[0m, [38;5;27mx5[0m, [[38;5;27msp[0m, [38;5;134m#32[0m]
   81234:	a9031fe6 	[38;5;142mstp[0m	[38;5;27mx6[0m, [38;5;27mx7[0m, [[38;5;27msp[0m, [38;5;134m#48[0m]
   81238:	a90427e8 	[38;5;142mstp[0m	[38;5;27mx8[0m, [38;5;27mx9[0m, [[38;5;27msp[0m, [38;5;134m#64[0m]
   8123c:	a9052fea 	[38;5;142mstp[0m	[38;5;27mx10[0m, [38;5;27mx11[0m, [[38;5;27msp[0m, [38;5;134m#80[0m]
   81240:	a90637ec 	[38;5;142mstp[0m	[38;5;27mx12[0m, [38;5;27mx13[0m, [[38;5;27msp[0m, [38;5;134m#96[0m]
   81244:	a9073fee 	[38;5;142mstp[0m	[38;5;27mx14[0m, [38;5;27mx15[0m, [[38;5;27msp[0m, [38;5;134m#112[0m]
   81248:	a90847f0 	[38;5;142mstp[0m	[38;5;27mx16[0m, [38;5;27mx17[0m, [[38;5;27msp[0m, [38;5;134m#128[0m]
   8124c:	a9094ff2 	[38;5;142mstp[0m	[38;5;27mx18[0m, [38;5;27mx19[0m, [[38;5;27msp[0m, [38;5;134m#144[0m]
   81250:	a90a57f4 	[38;5;142mstp[0m	[38;5;27mx20[0m, [38;5;27mx21[0m, [[38;5;27msp[0m, [38;5;134m#160[0m]
   81254:	a90b5ff6 	[38;5;142mstp[0m	[38;5;27mx22[0m, [38;5;27mx23[0m, [[38;5;27msp[0m, [38;5;134m#176[0m]
   81258:	a90c67f8 	[38;5;142mstp[0m	[38;5;27mx24[0m, [38;5;27mx25[0m, [[38;5;27msp[0m, [38;5;134m#192[0m]
   8125c:	a90d6ffa 	[38;5;142mstp[0m	[38;5;27mx26[0m, [38;5;27mx27[0m, [[38;5;27msp[0m, [38;5;134m#208[0m]
   81260:	a90e77fc 	[38;5;142mstp[0m	[38;5;27mx28[0m, [38;5;27mx29[0m, [[38;5;27msp[0m, [38;5;134m#224[0m]
   81264:	f9007bfe 	[38;5;142mstr[0m	[38;5;27mx30[0m, [[38;5;27msp[0m, [38;5;134m#240[0m]
   81268:	d2800120 	[38;5;142mmov[0m	[38;5;27mx0[0m, [38;5;134m#0x9                   [0m[38;5;250m	// #9[0m
   8126c:	d5385201 	[38;5;142mmrs[0m	[38;5;27mx1[0m, [38;5;27mesr_el1[0m
   81270:	d5384022 	[38;5;142mmrs[0m	[38;5;27mx2[0m, [38;5;27melr_el1[0m
   81274:	140000a3 	[38;5;142mb[0m	[38;5;134m81500[0m <[38;5;40merr_hang[0m>

0000000000081278 <fiq_invalid_el0_64>:
   81278:	d10403ff 	[38;5;142msub[0m	[38;5;27msp[0m, [38;5;27msp[0m, [38;5;134m#0x100[0m
   8127c:	a90007e0 	[38;5;142mstp[0m	[38;5;27mx0[0m, [38;5;27mx1[0m, [[38;5;27msp[0m]
   81280:	a9010fe2 	[38;5;142mstp[0m	[38;5;27mx2[0m, [38;5;27mx3[0m, [[38;5;27msp[0m, [38;5;134m#16[0m]
   81284:	a90217e4 	[38;5;142mstp[0m	[38;5;27mx4[0m, [38;5;27mx5[0m, [[38;5;27msp[0m, [38;5;134m#32[0m]
   81288:	a9031fe6 	[38;5;142mstp[0m	[38;5;27mx6[0m, [38;5;27mx7[0m, [[38;5;27msp[0m, [38;5;134m#48[0m]
   8128c:	a90427e8 	[38;5;142mstp[0m	[38;5;27mx8[0m, [38;5;27mx9[0m, [[38;5;27msp[0m, [38;5;134m#64[0m]
   81290:	a9052fea 	[38;5;142mstp[0m	[38;5;27mx10[0m, [38;5;27mx11[0m, [[38;5;27msp[0m, [38;5;134m#80[0m]
   81294:	a90637ec 	[38;5;142mstp[0m	[38;5;27mx12[0m, [38;5;27mx13[0m, [[38;5;27msp[0m, [38;5;134m#96[0m]
   81298:	a9073fee 	[38;5;142mstp[0m	[38;5;27mx14[0m, [38;5;27mx15[0m, [[38;5;27msp[0m, [38;5;134m#112[0m]
   8129c:	a90847f0 	[38;5;142mstp[0m	[38;5;27mx16[0m, [38;5;27mx17[0m, [[38;5;27msp[0m, [38;5;134m#128[0m]
   812a0:	a9094ff2 	[38;5;142mstp[0m	[38;5;27mx18[0m, [38;5;27mx19[0m, [[38;5;27msp[0m, [38;5;134m#144[0m]
   812a4:	a90a57f4 	[38;5;142mstp[0m	[38;5;27mx20[0m, [38;5;27mx21[0m, [[38;5;27msp[0m, [38;5;134m#160[0m]
   812a8:	a90b5ff6 	[38;5;142mstp[0m	[38;5;27mx22[0m, [38;5;27mx23[0m, [[38;5;27msp[0m, [38;5;134m#176[0m]
   812ac:	a90c67f8 	[38;5;142mstp[0m	[38;5;27mx24[0m, [38;5;27mx25[0m, [[38;5;27msp[0m, [38;5;134m#192[0m]
   812b0:	a90d6ffa 	[38;5;142mstp[0m	[38;5;27mx26[0m, [38;5;27mx27[0m, [[38;5;27msp[0m, [38;5;134m#208[0m]
   812b4:	a90e77fc 	[38;5;142mstp[0m	[38;5;27mx28[0m, [38;5;27mx29[0m, [[38;5;27msp[0m, [38;5;134m#224[0m]
   812b8:	f9007bfe 	[38;5;142mstr[0m	[38;5;27mx30[0m, [[38;5;27msp[0m, [38;5;134m#240[0m]
   812bc:	d2800140 	[38;5;142mmov[0m	[38;5;27mx0[0m, [38;5;134m#0xa                   [0m[38;5;250m	// #10[0m
   812c0:	d5385201 	[38;5;142mmrs[0m	[38;5;27mx1[0m, [38;5;27mesr_el1[0m
   812c4:	d5384022 	[38;5;142mmrs[0m	[38;5;27mx2[0m, [38;5;27melr_el1[0m
   812c8:	1400008e 	[38;5;142mb[0m	[38;5;134m81500[0m <[38;5;40merr_hang[0m>

00000000000812cc <error_invalid_el0_64>:
   812cc:	d10403ff 	[38;5;142msub[0m	[38;5;27msp[0m, [38;5;27msp[0m, [38;5;134m#0x100[0m
   812d0:	a90007e0 	[38;5;142mstp[0m	[38;5;27mx0[0m, [38;5;27mx1[0m, [[38;5;27msp[0m]
   812d4:	a9010fe2 	[38;5;142mstp[0m	[38;5;27mx2[0m, [38;5;27mx3[0m, [[38;5;27msp[0m, [38;5;134m#16[0m]
   812d8:	a90217e4 	[38;5;142mstp[0m	[38;5;27mx4[0m, [38;5;27mx5[0m, [[38;5;27msp[0m, [38;5;134m#32[0m]
   812dc:	a9031fe6 	[38;5;142mstp[0m	[38;5;27mx6[0m, [38;5;27mx7[0m, [[38;5;27msp[0m, [38;5;134m#48[0m]
   812e0:	a90427e8 	[38;5;142mstp[0m	[38;5;27mx8[0m, [38;5;27mx9[0m, [[38;5;27msp[0m, [38;5;134m#64[0m]
   812e4:	a9052fea 	[38;5;142mstp[0m	[38;5;27mx10[0m, [38;5;27mx11[0m, [[38;5;27msp[0m, [38;5;134m#80[0m]
   812e8:	a90637ec 	[38;5;142mstp[0m	[38;5;27mx12[0m, [38;5;27mx13[0m, [[38;5;27msp[0m, [38;5;134m#96[0m]
   812ec:	a9073fee 	[38;5;142mstp[0m	[38;5;27mx14[0m, [38;5;27mx15[0m, [[38;5;27msp[0m, [38;5;134m#112[0m]
   812f0:	a90847f0 	[38;5;142mstp[0m	[38;5;27mx16[0m, [38;5;27mx17[0m, [[38;5;27msp[0m, [38;5;134m#128[0m]
   812f4:	a9094ff2 	[38;5;142mstp[0m	[38;5;27mx18[0m, [38;5;27mx19[0m, [[38;5;27msp[0m, [38;5;134m#144[0m]
   812f8:	a90a57f4 	[38;5;142mstp[0m	[38;5;27mx20[0m, [38;5;27mx21[0m, [[38;5;27msp[0m, [38;5;134m#160[0m]
   812fc:	a90b5ff6 	[38;5;142mstp[0m	[38;5;27mx22[0m, [38;5;27mx23[0m, [[38;5;27msp[0m, [38;5;134m#176[0m]
   81300:	a90c67f8 	[38;5;142mstp[0m	[38;5;27mx24[0m, [38;5;27mx25[0m, [[38;5;27msp[0m, [38;5;134m#192[0m]
   81304:	a90d6ffa 	[38;5;142mstp[0m	[38;5;27mx26[0m, [38;5;27mx27[0m, [[38;5;27msp[0m, [38;5;134m#208[0m]
   81308:	a90e77fc 	[38;5;142mstp[0m	[38;5;27mx28[0m, [38;5;27mx29[0m, [[38;5;27msp[0m, [38;5;134m#224[0m]
   8130c:	f9007bfe 	[38;5;142mstr[0m	[38;5;27mx30[0m, [[38;5;27msp[0m, [38;5;134m#240[0m]
   81310:	d2800160 	[38;5;142mmov[0m	[38;5;27mx0[0m, [38;5;134m#0xb                   [0m[38;5;250m	// #11[0m
   81314:	d5385201 	[38;5;142mmrs[0m	[38;5;27mx1[0m, [38;5;27mesr_el1[0m
   81318:	d5384022 	[38;5;142mmrs[0m	[38;5;27mx2[0m, [38;5;27melr_el1[0m
   8131c:	14000079 	[38;5;142mb[0m	[38;5;134m81500[0m <[38;5;40merr_hang[0m>

0000000000081320 <sync_invalid_el0_32>:
   81320:	d10403ff 	[38;5;142msub[0m	[38;5;27msp[0m, [38;5;27msp[0m, [38;5;134m#0x100[0m
   81324:	a90007e0 	[38;5;142mstp[0m	[38;5;27mx0[0m, [38;5;27mx1[0m, [[38;5;27msp[0m]
   81328:	a9010fe2 	[38;5;142mstp[0m	[38;5;27mx2[0m, [38;5;27mx3[0m, [[38;5;27msp[0m, [38;5;134m#16[0m]
   8132c:	a90217e4 	[38;5;142mstp[0m	[38;5;27mx4[0m, [38;5;27mx5[0m, [[38;5;27msp[0m, [38;5;134m#32[0m]
   81330:	a9031fe6 	[38;5;142mstp[0m	[38;5;27mx6[0m, [38;5;27mx7[0m, [[38;5;27msp[0m, [38;5;134m#48[0m]
   81334:	a90427e8 	[38;5;142mstp[0m	[38;5;27mx8[0m, [38;5;27mx9[0m, [[38;5;27msp[0m, [38;5;134m#64[0m]
   81338:	a9052fea 	[38;5;142mstp[0m	[38;5;27mx10[0m, [38;5;27mx11[0m, [[38;5;27msp[0m, [38;5;134m#80[0m]
   8133c:	a90637ec 	[38;5;142mstp[0m	[38;5;27mx12[0m, [38;5;27mx13[0m, [[38;5;27msp[0m, [38;5;134m#96[0m]
   81340:	a9073fee 	[38;5;142mstp[0m	[38;5;27mx14[0m, [38;5;27mx15[0m, [[38;5;27msp[0m, [38;5;134m#112[0m]
   81344:	a90847f0 	[38;5;142mstp[0m	[38;5;27mx16[0m, [38;5;27mx17[0m, [[38;5;27msp[0m, [38;5;134m#128[0m]
   81348:	a9094ff2 	[38;5;142mstp[0m	[38;5;27mx18[0m, [38;5;27mx19[0m, [[38;5;27msp[0m, [38;5;134m#144[0m]
   8134c:	a90a57f4 	[38;5;142mstp[0m	[38;5;27mx20[0m, [38;5;27mx21[0m, [[38;5;27msp[0m, [38;5;134m#160[0m]
   81350:	a90b5ff6 	[38;5;142mstp[0m	[38;5;27mx22[0m, [38;5;27mx23[0m, [[38;5;27msp[0m, [38;5;134m#176[0m]
   81354:	a90c67f8 	[38;5;142mstp[0m	[38;5;27mx24[0m, [38;5;27mx25[0m, [[38;5;27msp[0m, [38;5;134m#192[0m]
   81358:	a90d6ffa 	[38;5;142mstp[0m	[38;5;27mx26[0m, [38;5;27mx27[0m, [[38;5;27msp[0m, [38;5;134m#208[0m]
   8135c:	a90e77fc 	[38;5;142mstp[0m	[38;5;27mx28[0m, [38;5;27mx29[0m, [[38;5;27msp[0m, [38;5;134m#224[0m]
   81360:	f9007bfe 	[38;5;142mstr[0m	[38;5;27mx30[0m, [[38;5;27msp[0m, [38;5;134m#240[0m]
   81364:	d2800180 	[38;5;142mmov[0m	[38;5;27mx0[0m, [38;5;134m#0xc                   [0m[38;5;250m	// #12[0m
   81368:	d5385201 	[38;5;142mmrs[0m	[38;5;27mx1[0m, [38;5;27mesr_el1[0m
   8136c:	d5384022 	[38;5;142mmrs[0m	[38;5;27mx2[0m, [38;5;27melr_el1[0m
   81370:	14000064 	[38;5;142mb[0m	[38;5;134m81500[0m <[38;5;40merr_hang[0m>

0000000000081374 <irq_invalid_el0_32>:
   81374:	d10403ff 	[38;5;142msub[0m	[38;5;27msp[0m, [38;5;27msp[0m, [38;5;134m#0x100[0m
   81378:	a90007e0 	[38;5;142mstp[0m	[38;5;27mx0[0m, [38;5;27mx1[0m, [[38;5;27msp[0m]
   8137c:	a9010fe2 	[38;5;142mstp[0m	[38;5;27mx2[0m, [38;5;27mx3[0m, [[38;5;27msp[0m, [38;5;134m#16[0m]
   81380:	a90217e4 	[38;5;142mstp[0m	[38;5;27mx4[0m, [38;5;27mx5[0m, [[38;5;27msp[0m, [38;5;134m#32[0m]
   81384:	a9031fe6 	[38;5;142mstp[0m	[38;5;27mx6[0m, [38;5;27mx7[0m, [[38;5;27msp[0m, [38;5;134m#48[0m]
   81388:	a90427e8 	[38;5;142mstp[0m	[38;5;27mx8[0m, [38;5;27mx9[0m, [[38;5;27msp[0m, [38;5;134m#64[0m]
   8138c:	a9052fea 	[38;5;142mstp[0m	[38;5;27mx10[0m, [38;5;27mx11[0m, [[38;5;27msp[0m, [38;5;134m#80[0m]
   81390:	a90637ec 	[38;5;142mstp[0m	[38;5;27mx12[0m, [38;5;27mx13[0m, [[38;5;27msp[0m, [38;5;134m#96[0m]
   81394:	a9073fee 	[38;5;142mstp[0m	[38;5;27mx14[0m, [38;5;27mx15[0m, [[38;5;27msp[0m, [38;5;134m#112[0m]
   81398:	a90847f0 	[38;5;142mstp[0m	[38;5;27mx16[0m, [38;5;27mx17[0m, [[38;5;27msp[0m, [38;5;134m#128[0m]
   8139c:	a9094ff2 	[38;5;142mstp[0m	[38;5;27mx18[0m, [38;5;27mx19[0m, [[38;5;27msp[0m, [38;5;134m#144[0m]
   813a0:	a90a57f4 	[38;5;142mstp[0m	[38;5;27mx20[0m, [38;5;27mx21[0m, [[38;5;27msp[0m, [38;5;134m#160[0m]
   813a4:	a90b5ff6 	[38;5;142mstp[0m	[38;5;27mx22[0m, [38;5;27mx23[0m, [[38;5;27msp[0m, [38;5;134m#176[0m]
   813a8:	a90c67f8 	[38;5;142mstp[0m	[38;5;27mx24[0m, [38;5;27mx25[0m, [[38;5;27msp[0m, [38;5;134m#192[0m]
   813ac:	a90d6ffa 	[38;5;142mstp[0m	[38;5;27mx26[0m, [38;5;27mx27[0m, [[38;5;27msp[0m, [38;5;134m#208[0m]
   813b0:	a90e77fc 	[38;5;142mstp[0m	[38;5;27mx28[0m, [38;5;27mx29[0m, [[38;5;27msp[0m, [38;5;134m#224[0m]
   813b4:	f9007bfe 	[38;5;142mstr[0m	[38;5;27mx30[0m, [[38;5;27msp[0m, [38;5;134m#240[0m]
   813b8:	d28001a0 	[38;5;142mmov[0m	[38;5;27mx0[0m, [38;5;134m#0xd                   [0m[38;5;250m	// #13[0m
   813bc:	d5385201 	[38;5;142mmrs[0m	[38;5;27mx1[0m, [38;5;27mesr_el1[0m
   813c0:	d5384022 	[38;5;142mmrs[0m	[38;5;27mx2[0m, [38;5;27melr_el1[0m
   813c4:	1400004f 	[38;5;142mb[0m	[38;5;134m81500[0m <[38;5;40merr_hang[0m>

00000000000813c8 <fiq_invalid_el0_32>:
   813c8:	d10403ff 	[38;5;142msub[0m	[38;5;27msp[0m, [38;5;27msp[0m, [38;5;134m#0x100[0m
   813cc:	a90007e0 	[38;5;142mstp[0m	[38;5;27mx0[0m, [38;5;27mx1[0m, [[38;5;27msp[0m]
   813d0:	a9010fe2 	[38;5;142mstp[0m	[38;5;27mx2[0m, [38;5;27mx3[0m, [[38;5;27msp[0m, [38;5;134m#16[0m]
   813d4:	a90217e4 	[38;5;142mstp[0m	[38;5;27mx4[0m, [38;5;27mx5[0m, [[38;5;27msp[0m, [38;5;134m#32[0m]
   813d8:	a9031fe6 	[38;5;142mstp[0m	[38;5;27mx6[0m, [38;5;27mx7[0m, [[38;5;27msp[0m, [38;5;134m#48[0m]
   813dc:	a90427e8 	[38;5;142mstp[0m	[38;5;27mx8[0m, [38;5;27mx9[0m, [[38;5;27msp[0m, [38;5;134m#64[0m]
   813e0:	a9052fea 	[38;5;142mstp[0m	[38;5;27mx10[0m, [38;5;27mx11[0m, [[38;5;27msp[0m, [38;5;134m#80[0m]
   813e4:	a90637ec 	[38;5;142mstp[0m	[38;5;27mx12[0m, [38;5;27mx13[0m, [[38;5;27msp[0m, [38;5;134m#96[0m]
   813e8:	a9073fee 	[38;5;142mstp[0m	[38;5;27mx14[0m, [38;5;27mx15[0m, [[38;5;27msp[0m, [38;5;134m#112[0m]
   813ec:	a90847f0 	[38;5;142mstp[0m	[38;5;27mx16[0m, [38;5;27mx17[0m, [[38;5;27msp[0m, [38;5;134m#128[0m]
   813f0:	a9094ff2 	[38;5;142mstp[0m	[38;5;27mx18[0m, [38;5;27mx19[0m, [[38;5;27msp[0m, [38;5;134m#144[0m]
   813f4:	a90a57f4 	[38;5;142mstp[0m	[38;5;27mx20[0m, [38;5;27mx21[0m, [[38;5;27msp[0m, [38;5;134m#160[0m]
   813f8:	a90b5ff6 	[38;5;142mstp[0m	[38;5;27mx22[0m, [38;5;27mx23[0m, [[38;5;27msp[0m, [38;5;134m#176[0m]
   813fc:	a90c67f8 	[38;5;142mstp[0m	[38;5;27mx24[0m, [38;5;27mx25[0m, [[38;5;27msp[0m, [38;5;134m#192[0m]
   81400:	a90d6ffa 	[38;5;142mstp[0m	[38;5;27mx26[0m, [38;5;27mx27[0m, [[38;5;27msp[0m, [38;5;134m#208[0m]
   81404:	a90e77fc 	[38;5;142mstp[0m	[38;5;27mx28[0m, [38;5;27mx29[0m, [[38;5;27msp[0m, [38;5;134m#224[0m]
   81408:	f9007bfe 	[38;5;142mstr[0m	[38;5;27mx30[0m, [[38;5;27msp[0m, [38;5;134m#240[0m]
   8140c:	d28001c0 	[38;5;142mmov[0m	[38;5;27mx0[0m, [38;5;134m#0xe                   [0m[38;5;250m	// #14[0m
   81410:	d5385201 	[38;5;142mmrs[0m	[38;5;27mx1[0m, [38;5;27mesr_el1[0m
   81414:	d5384022 	[38;5;142mmrs[0m	[38;5;27mx2[0m, [38;5;27melr_el1[0m
   81418:	1400003a 	[38;5;142mb[0m	[38;5;134m81500[0m <[38;5;40merr_hang[0m>

000000000008141c <error_invalid_el0_32>:
   8141c:	d10403ff 	[38;5;142msub[0m	[38;5;27msp[0m, [38;5;27msp[0m, [38;5;134m#0x100[0m
   81420:	a90007e0 	[38;5;142mstp[0m	[38;5;27mx0[0m, [38;5;27mx1[0m, [[38;5;27msp[0m]
   81424:	a9010fe2 	[38;5;142mstp[0m	[38;5;27mx2[0m, [38;5;27mx3[0m, [[38;5;27msp[0m, [38;5;134m#16[0m]
   81428:	a90217e4 	[38;5;142mstp[0m	[38;5;27mx4[0m, [38;5;27mx5[0m, [[38;5;27msp[0m, [38;5;134m#32[0m]
   8142c:	a9031fe6 	[38;5;142mstp[0m	[38;5;27mx6[0m, [38;5;27mx7[0m, [[38;5;27msp[0m, [38;5;134m#48[0m]
   81430:	a90427e8 	[38;5;142mstp[0m	[38;5;27mx8[0m, [38;5;27mx9[0m, [[38;5;27msp[0m, [38;5;134m#64[0m]
   81434:	a9052fea 	[38;5;142mstp[0m	[38;5;27mx10[0m, [38;5;27mx11[0m, [[38;5;27msp[0m, [38;5;134m#80[0m]
   81438:	a90637ec 	[38;5;142mstp[0m	[38;5;27mx12[0m, [38;5;27mx13[0m, [[38;5;27msp[0m, [38;5;134m#96[0m]
   8143c:	a9073fee 	[38;5;142mstp[0m	[38;5;27mx14[0m, [38;5;27mx15[0m, [[38;5;27msp[0m, [38;5;134m#112[0m]
   81440:	a90847f0 	[38;5;142mstp[0m	[38;5;27mx16[0m, [38;5;27mx17[0m, [[38;5;27msp[0m, [38;5;134m#128[0m]
   81444:	a9094ff2 	[38;5;142mstp[0m	[38;5;27mx18[0m, [38;5;27mx19[0m, [[38;5;27msp[0m, [38;5;134m#144[0m]
   81448:	a90a57f4 	[38;5;142mstp[0m	[38;5;27mx20[0m, [38;5;27mx21[0m, [[38;5;27msp[0m, [38;5;134m#160[0m]
   8144c:	a90b5ff6 	[38;5;142mstp[0m	[38;5;27mx22[0m, [38;5;27mx23[0m, [[38;5;27msp[0m, [38;5;134m#176[0m]
   81450:	a90c67f8 	[38;5;142mstp[0m	[38;5;27mx24[0m, [38;5;27mx25[0m, [[38;5;27msp[0m, [38;5;134m#192[0m]
   81454:	a90d6ffa 	[38;5;142mstp[0m	[38;5;27mx26[0m, [38;5;27mx27[0m, [[38;5;27msp[0m, [38;5;134m#208[0m]
   81458:	a90e77fc 	[38;5;142mstp[0m	[38;5;27mx28[0m, [38;5;27mx29[0m, [[38;5;27msp[0m, [38;5;134m#224[0m]
   8145c:	f9007bfe 	[38;5;142mstr[0m	[38;5;27mx30[0m, [[38;5;27msp[0m, [38;5;134m#240[0m]
   81460:	d28001e0 	[38;5;142mmov[0m	[38;5;27mx0[0m, [38;5;134m#0xf                   [0m[38;5;250m	// #15[0m
   81464:	d5385201 	[38;5;142mmrs[0m	[38;5;27mx1[0m, [38;5;27mesr_el1[0m
   81468:	d5384022 	[38;5;142mmrs[0m	[38;5;27mx2[0m, [38;5;27melr_el1[0m
   8146c:	14000025 	[38;5;142mb[0m	[38;5;134m81500[0m <[38;5;40merr_hang[0m>

0000000000081470 <handle_el1_irq>:
   81470:	d10403ff 	[38;5;142msub[0m	[38;5;27msp[0m, [38;5;27msp[0m, [38;5;134m#0x100[0m
   81474:	a90007e0 	[38;5;142mstp[0m	[38;5;27mx0[0m, [38;5;27mx1[0m, [[38;5;27msp[0m]
   81478:	a9010fe2 	[38;5;142mstp[0m	[38;5;27mx2[0m, [38;5;27mx3[0m, [[38;5;27msp[0m, [38;5;134m#16[0m]
   8147c:	a90217e4 	[38;5;142mstp[0m	[38;5;27mx4[0m, [38;5;27mx5[0m, [[38;5;27msp[0m, [38;5;134m#32[0m]
   81480:	a9031fe6 	[38;5;142mstp[0m	[38;5;27mx6[0m, [38;5;27mx7[0m, [[38;5;27msp[0m, [38;5;134m#48[0m]
   81484:	a90427e8 	[38;5;142mstp[0m	[38;5;27mx8[0m, [38;5;27mx9[0m, [[38;5;27msp[0m, [38;5;134m#64[0m]
   81488:	a9052fea 	[38;5;142mstp[0m	[38;5;27mx10[0m, [38;5;27mx11[0m, [[38;5;27msp[0m, [38;5;134m#80[0m]
   8148c:	a90637ec 	[38;5;142mstp[0m	[38;5;27mx12[0m, [38;5;27mx13[0m, [[38;5;27msp[0m, [38;5;134m#96[0m]
   81490:	a9073fee 	[38;5;142mstp[0m	[38;5;27mx14[0m, [38;5;27mx15[0m, [[38;5;27msp[0m, [38;5;134m#112[0m]
   81494:	a90847f0 	[38;5;142mstp[0m	[38;5;27mx16[0m, [38;5;27mx17[0m, [[38;5;27msp[0m, [38;5;134m#128[0m]
   81498:	a9094ff2 	[38;5;142mstp[0m	[38;5;27mx18[0m, [38;5;27mx19[0m, [[38;5;27msp[0m, [38;5;134m#144[0m]
   8149c:	a90a57f4 	[38;5;142mstp[0m	[38;5;27mx20[0m, [38;5;27mx21[0m, [[38;5;27msp[0m, [38;5;134m#160[0m]
   814a0:	a90b5ff6 	[38;5;142mstp[0m	[38;5;27mx22[0m, [38;5;27mx23[0m, [[38;5;27msp[0m, [38;5;134m#176[0m]
   814a4:	a90c67f8 	[38;5;142mstp[0m	[38;5;27mx24[0m, [38;5;27mx25[0m, [[38;5;27msp[0m, [38;5;134m#192[0m]
   814a8:	a90d6ffa 	[38;5;142mstp[0m	[38;5;27mx26[0m, [38;5;27mx27[0m, [[38;5;27msp[0m, [38;5;134m#208[0m]
   814ac:	a90e77fc 	[38;5;142mstp[0m	[38;5;27mx28[0m, [38;5;27mx29[0m, [[38;5;27msp[0m, [38;5;134m#224[0m]
   814b0:	f9007bfe 	[38;5;142mstr[0m	[38;5;27mx30[0m, [[38;5;27msp[0m, [38;5;134m#240[0m]
   814b4:	97fffc24 	[38;5;142mbl[0m	[38;5;134m80544[0m <[38;5;40mhandle_irq[0m>
   814b8:	a94007e0 	[38;5;142mldp[0m	[38;5;27mx0[0m, [38;5;27mx1[0m, [[38;5;27msp[0m]
   814bc:	a9410fe2 	[38;5;142mldp[0m	[38;5;27mx2[0m, [38;5;27mx3[0m, [[38;5;27msp[0m, [38;5;134m#16[0m]
   814c0:	a94217e4 	[38;5;142mldp[0m	[38;5;27mx4[0m, [38;5;27mx5[0m, [[38;5;27msp[0m, [38;5;134m#32[0m]
   814c4:	a9431fe6 	[38;5;142mldp[0m	[38;5;27mx6[0m, [38;5;27mx7[0m, [[38;5;27msp[0m, [38;5;134m#48[0m]
   814c8:	a94427e8 	[38;5;142mldp[0m	[38;5;27mx8[0m, [38;5;27mx9[0m, [[38;5;27msp[0m, [38;5;134m#64[0m]
   814cc:	a9452fea 	[38;5;142mldp[0m	[38;5;27mx10[0m, [38;5;27mx11[0m, [[38;5;27msp[0m, [38;5;134m#80[0m]
   814d0:	a94637ec 	[38;5;142mldp[0m	[38;5;27mx12[0m, [38;5;27mx13[0m, [[38;5;27msp[0m, [38;5;134m#96[0m]
   814d4:	a9473fee 	[38;5;142mldp[0m	[38;5;27mx14[0m, [38;5;27mx15[0m, [[38;5;27msp[0m, [38;5;134m#112[0m]
   814d8:	a94847f0 	[38;5;142mldp[0m	[38;5;27mx16[0m, [38;5;27mx17[0m, [[38;5;27msp[0m, [38;5;134m#128[0m]
   814dc:	a9494ff2 	[38;5;142mldp[0m	[38;5;27mx18[0m, [38;5;27mx19[0m, [[38;5;27msp[0m, [38;5;134m#144[0m]
   814e0:	a94a57f4 	[38;5;142mldp[0m	[38;5;27mx20[0m, [38;5;27mx21[0m, [[38;5;27msp[0m, [38;5;134m#160[0m]
   814e4:	a94b5ff6 	[38;5;142mldp[0m	[38;5;27mx22[0m, [38;5;27mx23[0m, [[38;5;27msp[0m, [38;5;134m#176[0m]
   814e8:	a94c67f8 	[38;5;142mldp[0m	[38;5;27mx24[0m, [38;5;27mx25[0m, [[38;5;27msp[0m, [38;5;134m#192[0m]
   814ec:	a94d6ffa 	[38;5;142mldp[0m	[38;5;27mx26[0m, [38;5;27mx27[0m, [[38;5;27msp[0m, [38;5;134m#208[0m]
   814f0:	a94e77fc 	[38;5;142mldp[0m	[38;5;27mx28[0m, [38;5;27mx29[0m, [[38;5;27msp[0m, [38;5;134m#224[0m]
   814f4:	f9407bfe 	[38;5;142mldr[0m	[38;5;27mx30[0m, [[38;5;27msp[0m, [38;5;134m#240[0m]
   814f8:	910403ff 	[38;5;142madd[0m	[38;5;27msp[0m, [38;5;27msp[0m, [38;5;134m#0x100[0m
   814fc:	d69f03e0 	[38;5;142meret[0m

0000000000081500 <err_hang>:
   81500:	14000000 	[38;5;142mb[0m	[38;5;134m81500[0m <[38;5;40merr_hang[0m>

0000000000081504 <irq_init_vectors>:
   81504:	10ff97e0 	[38;5;142madr[0m	[38;5;27mx0[0m, [38;5;134m80800[0m <[38;5;40mvectors[0m>
   81508:	d518c000 	[38;5;142mmsr[0m	[38;5;27mvbar_el1[0m, [38;5;27mx0[0m
   8150c:	d65f03c0 	[38;5;142mret[0m

0000000000081510 <irq_enable>:
   81510:	d50342ff 	[38;5;142mmsr[0m	[38;5;27mdaifclr[0m, [38;5;134m#0x2[0m
   81514:	d65f03c0 	[38;5;142mret[0m

0000000000081518 <irq_disable>:
   81518:	d50342df 	[38;5;142mmsr[0m	[38;5;27mdaifset[0m, [38;5;134m#0x2[0m
   8151c:	d65f03c0 	[38;5;142mret[0m
