
target/aarch64-unknown-none-softfloat/release/deps/kernel8-0071ac810e96a79d:     file format elf64-littleaarch64
target/aarch64-unknown-none-softfloat/release/deps/kernel8-0071ac810e96a79d
architecture: aarch64, flags 0x00000112:
EXEC_P, HAS_SYMS, D_PAGED
start address 0x0000000000080000

Program Header:
    LOAD off    0x0000000000010000 vaddr 0x0000000000080000 paddr 0x0000000000080000 align 2**16
         filesz 0x0000000000001bfc memsz 0x0000000000001bfc flags r-x
    LOAD off    0x0000000000011bfc vaddr 0x0000000000081bfc paddr 0x0000000000081bfc align 2**16
         filesz 0x00000000000000b5 memsz 0x00000000000000b5 flags r--
    LOAD off    0x0000000000011cb4 vaddr 0x0000000000081cb4 paddr 0x0000000000081cb4 align 2**16
         filesz 0x0000000000000000 memsz 0x0000000000000014 flags rw-
   STACK off    0x0000000000000000 vaddr 0x0000000000000000 paddr 0x0000000000000000 align 2**0
         filesz 0x0000000000000000 memsz 0x0000000000000000 flags rw-
private flags = 0x0:

Sections:
Idx Name          Size      VMA               LMA               File off  Algn
  0 .text         00001bfc  0000000000080000  0000000000080000  00010000  2**11
                  CONTENTS, ALLOC, LOAD, READONLY, CODE
  1 .rodata       000000b5  0000000000081bfc  0000000000081bfc  00011bfc  2**0
                  CONTENTS, ALLOC, LOAD, READONLY, DATA
  2 .bss          00000014  0000000000081cb4  0000000000081cb4  00011cb4  2**2
                  ALLOC
SYMBOL TABLE:
0000000000000000 l    df *ABS*	0000000000000000 kernel8.82bfe373c8127b96-cgu.0
0000000030d00800 l       *ABS*	0000000000000000 SCTLR_RESERVED
0000000000000000 l       *ABS*	0000000000000000 SCTLR_EE_LITTLE_ENDIAN
0000000000000000 l       *ABS*	0000000000000000 SCTLR_EOE_LITTLE_ENDIAN
0000000000000000 l       *ABS*	0000000000000000 SCTLR_I_CACHE_DISABLED
0000000000000000 l       *ABS*	0000000000000000 SCTLR_D_CACHE_DISABLED
0000000000001000 l       *ABS*	0000000000000000 SCTLR_I_CACHE_ENABLED
0000000000000004 l       *ABS*	0000000000000000 SCTLR_D_CACHE_ENABLED
0000000000000000 l       *ABS*	0000000000000000 SCTLR_MMU_DISABLED
0000000000000001 l       *ABS*	0000000000000000 SCTLR_MMU_ENABLED
0000000030d01804 l       *ABS*	0000000000000000 SCTLR_VALUE_MMU_DISABLED
0000000080000000 l       *ABS*	0000000000000000 HCR_RW
0000000080000000 l       *ABS*	0000000000000000 HCR_VALUE
0000000000000030 l       *ABS*	0000000000000000 SCR_RESERVED
0000000000000400 l       *ABS*	0000000000000000 SCR_RW
0000000000000001 l       *ABS*	0000000000000000 SCR_NS
0000000000000431 l       *ABS*	0000000000000000 SCR_VALUE
00000000000001c0 l       *ABS*	0000000000000000 SPSR_MASK_ALL
0000000000000005 l       *ABS*	0000000000000000 SPSR_EL1h
00000000000001c5 l       *ABS*	0000000000000000 SPSR_VALUE
00000000ff800000 l       *ABS*	0000000000000000 LOCAL_CONTROL
00000000ff800008 l       *ABS*	0000000000000000 LOCAL_PRESCALER
000000000337f980 l       *ABS*	0000000000000000 OSC_FREQ
0000000000400000 l       *ABS*	0000000000000000 MAIN_STACK
0000000000080078 l       .text	0000000000000000 el1_entry
0000000000000000 l       *ABS*	0000000000000000 SYNC_INVALID_EL1t
0000000000000001 l       *ABS*	0000000000000000 IRQ_INVALID_EL1t
0000000000000002 l       *ABS*	0000000000000000 FIQ_INVALID_EL1t
0000000000000003 l       *ABS*	0000000000000000 ERROR_INVALID_EL1t
0000000000000004 l       *ABS*	0000000000000000 SYNC_INVALID_EL1h
0000000000000005 l       *ABS*	0000000000000000 IRQ_INVALID_EL1h
0000000000000006 l       *ABS*	0000000000000000 FIQ_INVALID_EL1h
0000000000000007 l       *ABS*	0000000000000000 ERROR_INVALID_EL1h
0000000000000008 l       *ABS*	0000000000000000 SYNC_INVALID_EL0_64
0000000000000009 l       *ABS*	0000000000000000 IRQ_INVALID_EL0_64
000000000000000a l       *ABS*	0000000000000000 FIQ_INVALID_EL0_64
000000000000000b l       *ABS*	0000000000000000 ERROR_INVALID_EL0_64
000000000000000c l       *ABS*	0000000000000000 SYNC_INVALID_EL0_32
000000000000000d l       *ABS*	0000000000000000 IRQ_INVALID_EL0_32
000000000000000e l       *ABS*	0000000000000000 FIQ_INVALID_EL0_32
000000000000000f l       *ABS*	0000000000000000 ERROR_INVALID_EL0_32
0000000000000100 l       *ABS*	0000000000000000 S_FRAME_SIZE
0000000000080f84 l       .text	0000000000000000 sync_invalid_el1t
0000000000080fd8 l       .text	0000000000000000 irq_invalid_el1t
000000000008102c l       .text	0000000000000000 fiq_invalid_el1t
0000000000081080 l       .text	0000000000000000 error_invalid_el1t
00000000000810d4 l       .text	0000000000000000 sync_invalid_el1h
0000000000081470 l       .text	0000000000000000 handle_el1_irq
0000000000081128 l       .text	0000000000000000 fiq_invalid_el1h
000000000008117c l       .text	0000000000000000 error_invalid_el1h
00000000000811d0 l       .text	0000000000000000 sync_invalid_el0_64
0000000000081224 l       .text	0000000000000000 irq_invalid_el0_64
0000000000081278 l       .text	0000000000000000 fiq_invalid_el0_64
00000000000812cc l       .text	0000000000000000 error_invalid_el0_64
0000000000081320 l       .text	0000000000000000 sync_invalid_el0_32
0000000000081374 l       .text	0000000000000000 irq_invalid_el0_32
00000000000813c8 l       .text	0000000000000000 fiq_invalid_el0_32
000000000008141c l       .text	0000000000000000 error_invalid_el0_32
0000000000081cc0 l     O .bss	0000000000000004 _ZN7kernel89TIMER_VAL17he3b95a0cae862744E.0
0000000000081cc4 l     O .bss	0000000000000004 _ZN7kernel816NUM_TIMER_CALLED17hcd73ed2e5eb4c58aE.0
0000000000081504 g     F .text	0000000000000030 handle_irq
0000000000081534 g     F .text	00000000000001e4 handle_timer_1
0000000000081718 g     F .text	00000000000004e4 main
0000000000080000 g       .text	0000000000000000 _start
0000000000081cc0 g       .bss	0000000000000000 __bss_start
0000000000000001 g       *ABS*	0000000000000000 __bss_size
00000000000800cc g       .text	0000000000000000 irq_init_vectors
0000000000080800 g       .text	0000000000000000 vectors
00000000000800d8 g       .text	0000000000000000 irq_enable
00000000000800e0 g       .text	0000000000000000 irq_disable
0000000000081500 g       .text	0000000000000000 err_hang
0000000000081cc8 g       .bss	0000000000000000 __bss_end
0000000000081cc8 g       .bss	0000000000000000 _end



Disassembly of section .text:

0000000000080000 <_start>:
   80000:	d2bff000 	[38;5;142mmov[0m	[38;5;27mx0[0m, [38;5;134m#0xff800000            [0m[38;5;250m	// #4286578688[0m
   80004:	b900001f 	[38;5;142mstr[0m	[38;5;27mwzr[0m, [[38;5;27mx0[0m]
   80008:	52b00001 	[38;5;142mmov[0m	[38;5;27mw1[0m, [38;5;134m#0x80000000            [0m[38;5;250m	// #-2147483648[0m
   8000c:	580004a5 	[38;5;142mldr[0m	[38;5;27mx5[0m, [38;5;134m800a0[0m <[38;5;40mel1_entry[0m[38;5;134m+0x[0m[38;5;134m28[0m>
   80010:	d2bff006 	[38;5;142mmov[0m	[38;5;27mx6[0m, [38;5;134m#0xff800000            [0m[38;5;250m	// #4286578688[0m
   80014:	cb0600a5 	[38;5;142msub[0m	[38;5;27mx5[0m, [38;5;27mx5[0m, [38;5;27mx6[0m
   80018:	b8256801 	[38;5;142mstr[0m	[38;5;27mw1[0m, [[38;5;27mx0[0m, [38;5;27mx5[0m]
   8001c:	58000460 	[38;5;142mldr[0m	[38;5;27mx0[0m, [38;5;134m800a8[0m <[38;5;40mel1_entry[0m[38;5;134m+0x[0m[38;5;134m30[0m>
   80020:	d51be000 	[38;5;142mmsr[0m	[38;5;27mcntfrq_el0[0m, [38;5;27mx0[0m
   80024:	d51ce07f 	[38;5;142mmsr[0m	[38;5;27mcntvoff_el2[0m, [38;5;27mxzr[0m
   80028:	d53800a1 	[38;5;142mmrs[0m	[38;5;27mx1[0m, [38;5;27mmpidr_el1[0m
   8002c:	92400421 	[38;5;142mand[0m	[38;5;27mx1[0m, [38;5;27mx1[0m, [38;5;134m#0x3[0m
   80030:	b4000061 	[38;5;142mcbz[0m	[38;5;27mx1[0m, [38;5;134m8003c[0m <[38;5;40m_start[0m[38;5;134m+0x[0m[38;5;134m3c[0m>
   80034:	d503205f 	[38;5;142mwfe[0m
   80038:	17ffffff 	[38;5;142mb[0m	[38;5;134m80034[0m <[38;5;40m_start[0m[38;5;134m+0x[0m[38;5;134m34[0m>
   8003c:	d2867fe0 	[38;5;142mmov[0m	[38;5;27mx0[0m, [38;5;134m#0x33ff                [0m[38;5;250m	// #13311[0m
   80040:	d51e1140 	[38;5;142mmsr[0m	[38;5;27mcptr_el3[0m, [38;5;27mx0[0m
   80044:	d2a00600 	[38;5;142mmov[0m	[38;5;27mx0[0m, [38;5;134m#0x300000              [0m[38;5;250m	// #3145728[0m
   80048:	d5181040 	[38;5;142mmsr[0m	[38;5;27mcpacr_el1[0m, [38;5;27mx0[0m
   8004c:	58000320 	[38;5;142mldr[0m	[38;5;27mx0[0m, [38;5;134m800b0[0m <[38;5;40mel1_entry[0m[38;5;134m+0x[0m[38;5;134m38[0m>
   80050:	d5181000 	[38;5;142mmsr[0m	[38;5;27msctlr_el1[0m, [38;5;27mx0[0m
   80054:	d2b00000 	[38;5;142mmov[0m	[38;5;27mx0[0m, [38;5;134m#0x80000000            [0m[38;5;250m	// #2147483648[0m
   80058:	d51c1100 	[38;5;142mmsr[0m	[38;5;27mhcr_el2[0m, [38;5;27mx0[0m
   8005c:	d2808620 	[38;5;142mmov[0m	[38;5;27mx0[0m, [38;5;134m#0x431                 [0m[38;5;250m	// #1073[0m
   80060:	d51e1100 	[38;5;142mmsr[0m	[38;5;27mscr_el3[0m, [38;5;27mx0[0m
   80064:	d28038a0 	[38;5;142mmov[0m	[38;5;27mx0[0m, [38;5;134m#0x1c5                 [0m[38;5;250m	// #453[0m
   80068:	d51e4000 	[38;5;142mmsr[0m	[38;5;27mspsr_el3[0m, [38;5;27mx0[0m
   8006c:	10000060 	[38;5;142madr[0m	[38;5;27mx0[0m, [38;5;134m80078[0m <[38;5;40mel1_entry[0m>
   80070:	d51e4020 	[38;5;142mmsr[0m	[38;5;27melr_el3[0m, [38;5;27mx0[0m
   80074:	d69f03e0 	[38;5;142meret[0m

0000000000080078 <el1_entry>:
   80078:	58000201 	[38;5;142mldr[0m	[38;5;27mx1[0m, [38;5;134m800b8[0m <[38;5;40mel1_entry[0m[38;5;134m+0x[0m[38;5;134m40[0m>
   8007c:	9100003f 	[38;5;142mmov[0m	[38;5;27msp[0m, [38;5;27mx1[0m
   80080:	58000201 	[38;5;142mldr[0m	[38;5;27mx1[0m, [38;5;134m800c0[0m <[38;5;40mel1_entry[0m[38;5;134m+0x[0m[38;5;134m48[0m>
   80084:	18000222 	[38;5;142mldr[0m	[38;5;27mw2[0m, [38;5;134m800c8[0m <[38;5;40mel1_entry[0m[38;5;134m+0x[0m[38;5;134m50[0m>
   80088:	34000082 	[38;5;142mcbz[0m	[38;5;27mw2[0m, [38;5;134m80098[0m <[38;5;40mel1_entry[0m[38;5;134m+0x[0m[38;5;134m20[0m>
   8008c:	f800843f 	[38;5;142mstr[0m	[38;5;27mxzr[0m, [[38;5;27mx1[0m], [38;5;134m#8[0m
   80090:	51000442 	[38;5;142msub[0m	[38;5;27mw2[0m, [38;5;27mw2[0m, [38;5;134m#0x1[0m
   80094:	35ffffa2 	[38;5;142mcbnz[0m	[38;5;27mw2[0m, [38;5;134m80088[0m <[38;5;40mel1_entry[0m[38;5;134m+0x[0m[38;5;134m10[0m>
   80098:	940005a0 	[38;5;142mbl[0m	[38;5;134m81718[0m <[38;5;40mmain[0m>
   8009c:	17ffffe6 	[38;5;142mb[0m	[38;5;134m80034[0m <[38;5;40m_start[0m[38;5;134m+0x[0m[38;5;134m34[0m>
   800a0:	ff800008 	[38;5;142m.word	[0m[38;5;134m0xff800008[0m
   800a4:	00000000 	[38;5;142m.word	[0m[38;5;134m0x00000000[0m
   800a8:	0337f980 	[38;5;142m.word	[0m[38;5;134m0x0337f980[0m
   800ac:	00000000 	[38;5;142m.word	[0m[38;5;134m0x00000000[0m
   800b0:	30d01804 	[38;5;142m.word	[0m[38;5;134m0x30d01804[0m
   800b4:	00000000 	[38;5;142m.word	[0m[38;5;134m0x00000000[0m
   800b8:	00080000 	[38;5;142m.word	[0m[38;5;134m0x00080000[0m
   800bc:	00000000 	[38;5;142m.word	[0m[38;5;134m0x00000000[0m
   800c0:	00081cc0 	[38;5;142m.word	[0m[38;5;134m0x00081cc0[0m
   800c4:	00000000 	[38;5;142m.word	[0m[38;5;134m0x00000000[0m
   800c8:	00000001 	[38;5;142m.word	[0m[38;5;134m0x00000001[0m

00000000000800cc <irq_init_vectors>:
   800cc:	100039a0 	[38;5;142madr[0m	[38;5;27mx0[0m, [38;5;134m80800[0m <[38;5;40mvectors[0m>
   800d0:	d518c000 	[38;5;142mmsr[0m	[38;5;27mvbar_el1[0m, [38;5;27mx0[0m
   800d4:	d65f03c0 	[38;5;142mret[0m

00000000000800d8 <irq_enable>:
   800d8:	d50342ff 	[38;5;142mmsr[0m	[38;5;27mdaifclr[0m, [38;5;134m#0x2[0m
   800dc:	d65f03c0 	[38;5;142mret[0m

00000000000800e0 <irq_disable>:
   800e0:	d50342df 	[38;5;142mmsr[0m	[38;5;27mdaifset[0m, [38;5;134m#0x2[0m
   800e4:	d65f03c0 	[38;5;142mret[0m
   800e8:	d503201f 	[38;5;142mnop[0m
   800ec:	d503201f 	[38;5;142mnop[0m
   800f0:	d503201f 	[38;5;142mnop[0m
   800f4:	d503201f 	[38;5;142mnop[0m
   800f8:	d503201f 	[38;5;142mnop[0m
   800fc:	d503201f 	[38;5;142mnop[0m
   80100:	d503201f 	[38;5;142mnop[0m
   80104:	d503201f 	[38;5;142mnop[0m
   80108:	d503201f 	[38;5;142mnop[0m
   8010c:	d503201f 	[38;5;142mnop[0m
   80110:	d503201f 	[38;5;142mnop[0m
   80114:	d503201f 	[38;5;142mnop[0m
   80118:	d503201f 	[38;5;142mnop[0m
   8011c:	d503201f 	[38;5;142mnop[0m
   80120:	d503201f 	[38;5;142mnop[0m
   80124:	d503201f 	[38;5;142mnop[0m
   80128:	d503201f 	[38;5;142mnop[0m
   8012c:	d503201f 	[38;5;142mnop[0m
   80130:	d503201f 	[38;5;142mnop[0m
   80134:	d503201f 	[38;5;142mnop[0m
   80138:	d503201f 	[38;5;142mnop[0m
   8013c:	d503201f 	[38;5;142mnop[0m
   80140:	d503201f 	[38;5;142mnop[0m
   80144:	d503201f 	[38;5;142mnop[0m
   80148:	d503201f 	[38;5;142mnop[0m
   8014c:	d503201f 	[38;5;142mnop[0m
   80150:	d503201f 	[38;5;142mnop[0m
   80154:	d503201f 	[38;5;142mnop[0m
   80158:	d503201f 	[38;5;142mnop[0m
   8015c:	d503201f 	[38;5;142mnop[0m
   80160:	d503201f 	[38;5;142mnop[0m
   80164:	d503201f 	[38;5;142mnop[0m
   80168:	d503201f 	[38;5;142mnop[0m
   8016c:	d503201f 	[38;5;142mnop[0m
   80170:	d503201f 	[38;5;142mnop[0m
   80174:	d503201f 	[38;5;142mnop[0m
   80178:	d503201f 	[38;5;142mnop[0m
   8017c:	d503201f 	[38;5;142mnop[0m
   80180:	d503201f 	[38;5;142mnop[0m
   80184:	d503201f 	[38;5;142mnop[0m
   80188:	d503201f 	[38;5;142mnop[0m
   8018c:	d503201f 	[38;5;142mnop[0m
   80190:	d503201f 	[38;5;142mnop[0m
   80194:	d503201f 	[38;5;142mnop[0m
   80198:	d503201f 	[38;5;142mnop[0m
   8019c:	d503201f 	[38;5;142mnop[0m
   801a0:	d503201f 	[38;5;142mnop[0m
   801a4:	d503201f 	[38;5;142mnop[0m
   801a8:	d503201f 	[38;5;142mnop[0m
   801ac:	d503201f 	[38;5;142mnop[0m
   801b0:	d503201f 	[38;5;142mnop[0m
   801b4:	d503201f 	[38;5;142mnop[0m
   801b8:	d503201f 	[38;5;142mnop[0m
   801bc:	d503201f 	[38;5;142mnop[0m
   801c0:	d503201f 	[38;5;142mnop[0m
   801c4:	d503201f 	[38;5;142mnop[0m
   801c8:	d503201f 	[38;5;142mnop[0m
   801cc:	d503201f 	[38;5;142mnop[0m
   801d0:	d503201f 	[38;5;142mnop[0m
   801d4:	d503201f 	[38;5;142mnop[0m
   801d8:	d503201f 	[38;5;142mnop[0m
   801dc:	d503201f 	[38;5;142mnop[0m
   801e0:	d503201f 	[38;5;142mnop[0m
   801e4:	d503201f 	[38;5;142mnop[0m
   801e8:	d503201f 	[38;5;142mnop[0m
   801ec:	d503201f 	[38;5;142mnop[0m
   801f0:	d503201f 	[38;5;142mnop[0m
   801f4:	d503201f 	[38;5;142mnop[0m
   801f8:	d503201f 	[38;5;142mnop[0m
   801fc:	d503201f 	[38;5;142mnop[0m
   80200:	d503201f 	[38;5;142mnop[0m
   80204:	d503201f 	[38;5;142mnop[0m
   80208:	d503201f 	[38;5;142mnop[0m
   8020c:	d503201f 	[38;5;142mnop[0m
   80210:	d503201f 	[38;5;142mnop[0m
   80214:	d503201f 	[38;5;142mnop[0m
   80218:	d503201f 	[38;5;142mnop[0m
   8021c:	d503201f 	[38;5;142mnop[0m
   80220:	d503201f 	[38;5;142mnop[0m
   80224:	d503201f 	[38;5;142mnop[0m
   80228:	d503201f 	[38;5;142mnop[0m
   8022c:	d503201f 	[38;5;142mnop[0m
   80230:	d503201f 	[38;5;142mnop[0m
   80234:	d503201f 	[38;5;142mnop[0m
   80238:	d503201f 	[38;5;142mnop[0m
   8023c:	d503201f 	[38;5;142mnop[0m
   80240:	d503201f 	[38;5;142mnop[0m
   80244:	d503201f 	[38;5;142mnop[0m
   80248:	d503201f 	[38;5;142mnop[0m
   8024c:	d503201f 	[38;5;142mnop[0m
   80250:	d503201f 	[38;5;142mnop[0m
   80254:	d503201f 	[38;5;142mnop[0m
   80258:	d503201f 	[38;5;142mnop[0m
   8025c:	d503201f 	[38;5;142mnop[0m
   80260:	d503201f 	[38;5;142mnop[0m
   80264:	d503201f 	[38;5;142mnop[0m
   80268:	d503201f 	[38;5;142mnop[0m
   8026c:	d503201f 	[38;5;142mnop[0m
   80270:	d503201f 	[38;5;142mnop[0m
   80274:	d503201f 	[38;5;142mnop[0m
   80278:	d503201f 	[38;5;142mnop[0m
   8027c:	d503201f 	[38;5;142mnop[0m
   80280:	d503201f 	[38;5;142mnop[0m
   80284:	d503201f 	[38;5;142mnop[0m
   80288:	d503201f 	[38;5;142mnop[0m
   8028c:	d503201f 	[38;5;142mnop[0m
   80290:	d503201f 	[38;5;142mnop[0m
   80294:	d503201f 	[38;5;142mnop[0m
   80298:	d503201f 	[38;5;142mnop[0m
   8029c:	d503201f 	[38;5;142mnop[0m
   802a0:	d503201f 	[38;5;142mnop[0m
   802a4:	d503201f 	[38;5;142mnop[0m
   802a8:	d503201f 	[38;5;142mnop[0m
   802ac:	d503201f 	[38;5;142mnop[0m
   802b0:	d503201f 	[38;5;142mnop[0m
   802b4:	d503201f 	[38;5;142mnop[0m
   802b8:	d503201f 	[38;5;142mnop[0m
   802bc:	d503201f 	[38;5;142mnop[0m
   802c0:	d503201f 	[38;5;142mnop[0m
   802c4:	d503201f 	[38;5;142mnop[0m
   802c8:	d503201f 	[38;5;142mnop[0m
   802cc:	d503201f 	[38;5;142mnop[0m
   802d0:	d503201f 	[38;5;142mnop[0m
   802d4:	d503201f 	[38;5;142mnop[0m
   802d8:	d503201f 	[38;5;142mnop[0m
   802dc:	d503201f 	[38;5;142mnop[0m
   802e0:	d503201f 	[38;5;142mnop[0m
   802e4:	d503201f 	[38;5;142mnop[0m
   802e8:	d503201f 	[38;5;142mnop[0m
   802ec:	d503201f 	[38;5;142mnop[0m
   802f0:	d503201f 	[38;5;142mnop[0m
   802f4:	d503201f 	[38;5;142mnop[0m
   802f8:	d503201f 	[38;5;142mnop[0m
   802fc:	d503201f 	[38;5;142mnop[0m
   80300:	d503201f 	[38;5;142mnop[0m
   80304:	d503201f 	[38;5;142mnop[0m
   80308:	d503201f 	[38;5;142mnop[0m
   8030c:	d503201f 	[38;5;142mnop[0m
   80310:	d503201f 	[38;5;142mnop[0m
   80314:	d503201f 	[38;5;142mnop[0m
   80318:	d503201f 	[38;5;142mnop[0m
   8031c:	d503201f 	[38;5;142mnop[0m
   80320:	d503201f 	[38;5;142mnop[0m
   80324:	d503201f 	[38;5;142mnop[0m
   80328:	d503201f 	[38;5;142mnop[0m
   8032c:	d503201f 	[38;5;142mnop[0m
   80330:	d503201f 	[38;5;142mnop[0m
   80334:	d503201f 	[38;5;142mnop[0m
   80338:	d503201f 	[38;5;142mnop[0m
   8033c:	d503201f 	[38;5;142mnop[0m
   80340:	d503201f 	[38;5;142mnop[0m
   80344:	d503201f 	[38;5;142mnop[0m
   80348:	d503201f 	[38;5;142mnop[0m
   8034c:	d503201f 	[38;5;142mnop[0m
   80350:	d503201f 	[38;5;142mnop[0m
   80354:	d503201f 	[38;5;142mnop[0m
   80358:	d503201f 	[38;5;142mnop[0m
   8035c:	d503201f 	[38;5;142mnop[0m
   80360:	d503201f 	[38;5;142mnop[0m
   80364:	d503201f 	[38;5;142mnop[0m
   80368:	d503201f 	[38;5;142mnop[0m
   8036c:	d503201f 	[38;5;142mnop[0m
   80370:	d503201f 	[38;5;142mnop[0m
   80374:	d503201f 	[38;5;142mnop[0m
   80378:	d503201f 	[38;5;142mnop[0m
   8037c:	d503201f 	[38;5;142mnop[0m
   80380:	d503201f 	[38;5;142mnop[0m
   80384:	d503201f 	[38;5;142mnop[0m
   80388:	d503201f 	[38;5;142mnop[0m
   8038c:	d503201f 	[38;5;142mnop[0m
   80390:	d503201f 	[38;5;142mnop[0m
   80394:	d503201f 	[38;5;142mnop[0m
   80398:	d503201f 	[38;5;142mnop[0m
   8039c:	d503201f 	[38;5;142mnop[0m
   803a0:	d503201f 	[38;5;142mnop[0m
   803a4:	d503201f 	[38;5;142mnop[0m
   803a8:	d503201f 	[38;5;142mnop[0m
   803ac:	d503201f 	[38;5;142mnop[0m
   803b0:	d503201f 	[38;5;142mnop[0m
   803b4:	d503201f 	[38;5;142mnop[0m
   803b8:	d503201f 	[38;5;142mnop[0m
   803bc:	d503201f 	[38;5;142mnop[0m
   803c0:	d503201f 	[38;5;142mnop[0m
   803c4:	d503201f 	[38;5;142mnop[0m
   803c8:	d503201f 	[38;5;142mnop[0m
   803cc:	d503201f 	[38;5;142mnop[0m
   803d0:	d503201f 	[38;5;142mnop[0m
   803d4:	d503201f 	[38;5;142mnop[0m
   803d8:	d503201f 	[38;5;142mnop[0m
   803dc:	d503201f 	[38;5;142mnop[0m
   803e0:	d503201f 	[38;5;142mnop[0m
   803e4:	d503201f 	[38;5;142mnop[0m
   803e8:	d503201f 	[38;5;142mnop[0m
   803ec:	d503201f 	[38;5;142mnop[0m
   803f0:	d503201f 	[38;5;142mnop[0m
   803f4:	d503201f 	[38;5;142mnop[0m
   803f8:	d503201f 	[38;5;142mnop[0m
   803fc:	d503201f 	[38;5;142mnop[0m
   80400:	d503201f 	[38;5;142mnop[0m
   80404:	d503201f 	[38;5;142mnop[0m
   80408:	d503201f 	[38;5;142mnop[0m
   8040c:	d503201f 	[38;5;142mnop[0m
   80410:	d503201f 	[38;5;142mnop[0m
   80414:	d503201f 	[38;5;142mnop[0m
   80418:	d503201f 	[38;5;142mnop[0m
   8041c:	d503201f 	[38;5;142mnop[0m
   80420:	d503201f 	[38;5;142mnop[0m
   80424:	d503201f 	[38;5;142mnop[0m
   80428:	d503201f 	[38;5;142mnop[0m
   8042c:	d503201f 	[38;5;142mnop[0m
   80430:	d503201f 	[38;5;142mnop[0m
   80434:	d503201f 	[38;5;142mnop[0m
   80438:	d503201f 	[38;5;142mnop[0m
   8043c:	d503201f 	[38;5;142mnop[0m
   80440:	d503201f 	[38;5;142mnop[0m
   80444:	d503201f 	[38;5;142mnop[0m
   80448:	d503201f 	[38;5;142mnop[0m
   8044c:	d503201f 	[38;5;142mnop[0m
   80450:	d503201f 	[38;5;142mnop[0m
   80454:	d503201f 	[38;5;142mnop[0m
   80458:	d503201f 	[38;5;142mnop[0m
   8045c:	d503201f 	[38;5;142mnop[0m
   80460:	d503201f 	[38;5;142mnop[0m
   80464:	d503201f 	[38;5;142mnop[0m
   80468:	d503201f 	[38;5;142mnop[0m
   8046c:	d503201f 	[38;5;142mnop[0m
   80470:	d503201f 	[38;5;142mnop[0m
   80474:	d503201f 	[38;5;142mnop[0m
   80478:	d503201f 	[38;5;142mnop[0m
   8047c:	d503201f 	[38;5;142mnop[0m
   80480:	d503201f 	[38;5;142mnop[0m
   80484:	d503201f 	[38;5;142mnop[0m
   80488:	d503201f 	[38;5;142mnop[0m
   8048c:	d503201f 	[38;5;142mnop[0m
   80490:	d503201f 	[38;5;142mnop[0m
   80494:	d503201f 	[38;5;142mnop[0m
   80498:	d503201f 	[38;5;142mnop[0m
   8049c:	d503201f 	[38;5;142mnop[0m
   804a0:	d503201f 	[38;5;142mnop[0m
   804a4:	d503201f 	[38;5;142mnop[0m
   804a8:	d503201f 	[38;5;142mnop[0m
   804ac:	d503201f 	[38;5;142mnop[0m
   804b0:	d503201f 	[38;5;142mnop[0m
   804b4:	d503201f 	[38;5;142mnop[0m
   804b8:	d503201f 	[38;5;142mnop[0m
   804bc:	d503201f 	[38;5;142mnop[0m
   804c0:	d503201f 	[38;5;142mnop[0m
   804c4:	d503201f 	[38;5;142mnop[0m
   804c8:	d503201f 	[38;5;142mnop[0m
   804cc:	d503201f 	[38;5;142mnop[0m
   804d0:	d503201f 	[38;5;142mnop[0m
   804d4:	d503201f 	[38;5;142mnop[0m
   804d8:	d503201f 	[38;5;142mnop[0m
   804dc:	d503201f 	[38;5;142mnop[0m
   804e0:	d503201f 	[38;5;142mnop[0m
   804e4:	d503201f 	[38;5;142mnop[0m
   804e8:	d503201f 	[38;5;142mnop[0m
   804ec:	d503201f 	[38;5;142mnop[0m
   804f0:	d503201f 	[38;5;142mnop[0m
   804f4:	d503201f 	[38;5;142mnop[0m
   804f8:	d503201f 	[38;5;142mnop[0m
   804fc:	d503201f 	[38;5;142mnop[0m
   80500:	d503201f 	[38;5;142mnop[0m
   80504:	d503201f 	[38;5;142mnop[0m
   80508:	d503201f 	[38;5;142mnop[0m
   8050c:	d503201f 	[38;5;142mnop[0m
   80510:	d503201f 	[38;5;142mnop[0m
   80514:	d503201f 	[38;5;142mnop[0m
   80518:	d503201f 	[38;5;142mnop[0m
   8051c:	d503201f 	[38;5;142mnop[0m
   80520:	d503201f 	[38;5;142mnop[0m
   80524:	d503201f 	[38;5;142mnop[0m
   80528:	d503201f 	[38;5;142mnop[0m
   8052c:	d503201f 	[38;5;142mnop[0m
   80530:	d503201f 	[38;5;142mnop[0m
   80534:	d503201f 	[38;5;142mnop[0m
   80538:	d503201f 	[38;5;142mnop[0m
   8053c:	d503201f 	[38;5;142mnop[0m
   80540:	d503201f 	[38;5;142mnop[0m
   80544:	d503201f 	[38;5;142mnop[0m
   80548:	d503201f 	[38;5;142mnop[0m
   8054c:	d503201f 	[38;5;142mnop[0m
   80550:	d503201f 	[38;5;142mnop[0m
   80554:	d503201f 	[38;5;142mnop[0m
   80558:	d503201f 	[38;5;142mnop[0m
   8055c:	d503201f 	[38;5;142mnop[0m
   80560:	d503201f 	[38;5;142mnop[0m
   80564:	d503201f 	[38;5;142mnop[0m
   80568:	d503201f 	[38;5;142mnop[0m
   8056c:	d503201f 	[38;5;142mnop[0m
   80570:	d503201f 	[38;5;142mnop[0m
   80574:	d503201f 	[38;5;142mnop[0m
   80578:	d503201f 	[38;5;142mnop[0m
   8057c:	d503201f 	[38;5;142mnop[0m
   80580:	d503201f 	[38;5;142mnop[0m
   80584:	d503201f 	[38;5;142mnop[0m
   80588:	d503201f 	[38;5;142mnop[0m
   8058c:	d503201f 	[38;5;142mnop[0m
   80590:	d503201f 	[38;5;142mnop[0m
   80594:	d503201f 	[38;5;142mnop[0m
   80598:	d503201f 	[38;5;142mnop[0m
   8059c:	d503201f 	[38;5;142mnop[0m
   805a0:	d503201f 	[38;5;142mnop[0m
   805a4:	d503201f 	[38;5;142mnop[0m
   805a8:	d503201f 	[38;5;142mnop[0m
   805ac:	d503201f 	[38;5;142mnop[0m
   805b0:	d503201f 	[38;5;142mnop[0m
   805b4:	d503201f 	[38;5;142mnop[0m
   805b8:	d503201f 	[38;5;142mnop[0m
   805bc:	d503201f 	[38;5;142mnop[0m
   805c0:	d503201f 	[38;5;142mnop[0m
   805c4:	d503201f 	[38;5;142mnop[0m
   805c8:	d503201f 	[38;5;142mnop[0m
   805cc:	d503201f 	[38;5;142mnop[0m
   805d0:	d503201f 	[38;5;142mnop[0m
   805d4:	d503201f 	[38;5;142mnop[0m
   805d8:	d503201f 	[38;5;142mnop[0m
   805dc:	d503201f 	[38;5;142mnop[0m
   805e0:	d503201f 	[38;5;142mnop[0m
   805e4:	d503201f 	[38;5;142mnop[0m
   805e8:	d503201f 	[38;5;142mnop[0m
   805ec:	d503201f 	[38;5;142mnop[0m
   805f0:	d503201f 	[38;5;142mnop[0m
   805f4:	d503201f 	[38;5;142mnop[0m
   805f8:	d503201f 	[38;5;142mnop[0m
   805fc:	d503201f 	[38;5;142mnop[0m
   80600:	d503201f 	[38;5;142mnop[0m
   80604:	d503201f 	[38;5;142mnop[0m
   80608:	d503201f 	[38;5;142mnop[0m
   8060c:	d503201f 	[38;5;142mnop[0m
   80610:	d503201f 	[38;5;142mnop[0m
   80614:	d503201f 	[38;5;142mnop[0m
   80618:	d503201f 	[38;5;142mnop[0m
   8061c:	d503201f 	[38;5;142mnop[0m
   80620:	d503201f 	[38;5;142mnop[0m
   80624:	d503201f 	[38;5;142mnop[0m
   80628:	d503201f 	[38;5;142mnop[0m
   8062c:	d503201f 	[38;5;142mnop[0m
   80630:	d503201f 	[38;5;142mnop[0m
   80634:	d503201f 	[38;5;142mnop[0m
   80638:	d503201f 	[38;5;142mnop[0m
   8063c:	d503201f 	[38;5;142mnop[0m
   80640:	d503201f 	[38;5;142mnop[0m
   80644:	d503201f 	[38;5;142mnop[0m
   80648:	d503201f 	[38;5;142mnop[0m
   8064c:	d503201f 	[38;5;142mnop[0m
   80650:	d503201f 	[38;5;142mnop[0m
   80654:	d503201f 	[38;5;142mnop[0m
   80658:	d503201f 	[38;5;142mnop[0m
   8065c:	d503201f 	[38;5;142mnop[0m
   80660:	d503201f 	[38;5;142mnop[0m
   80664:	d503201f 	[38;5;142mnop[0m
   80668:	d503201f 	[38;5;142mnop[0m
   8066c:	d503201f 	[38;5;142mnop[0m
   80670:	d503201f 	[38;5;142mnop[0m
   80674:	d503201f 	[38;5;142mnop[0m
   80678:	d503201f 	[38;5;142mnop[0m
   8067c:	d503201f 	[38;5;142mnop[0m
   80680:	d503201f 	[38;5;142mnop[0m
   80684:	d503201f 	[38;5;142mnop[0m
   80688:	d503201f 	[38;5;142mnop[0m
   8068c:	d503201f 	[38;5;142mnop[0m
   80690:	d503201f 	[38;5;142mnop[0m
   80694:	d503201f 	[38;5;142mnop[0m
   80698:	d503201f 	[38;5;142mnop[0m
   8069c:	d503201f 	[38;5;142mnop[0m
   806a0:	d503201f 	[38;5;142mnop[0m
   806a4:	d503201f 	[38;5;142mnop[0m
   806a8:	d503201f 	[38;5;142mnop[0m
   806ac:	d503201f 	[38;5;142mnop[0m
   806b0:	d503201f 	[38;5;142mnop[0m
   806b4:	d503201f 	[38;5;142mnop[0m
   806b8:	d503201f 	[38;5;142mnop[0m
   806bc:	d503201f 	[38;5;142mnop[0m
   806c0:	d503201f 	[38;5;142mnop[0m
   806c4:	d503201f 	[38;5;142mnop[0m
   806c8:	d503201f 	[38;5;142mnop[0m
   806cc:	d503201f 	[38;5;142mnop[0m
   806d0:	d503201f 	[38;5;142mnop[0m
   806d4:	d503201f 	[38;5;142mnop[0m
   806d8:	d503201f 	[38;5;142mnop[0m
   806dc:	d503201f 	[38;5;142mnop[0m
   806e0:	d503201f 	[38;5;142mnop[0m
   806e4:	d503201f 	[38;5;142mnop[0m
   806e8:	d503201f 	[38;5;142mnop[0m
   806ec:	d503201f 	[38;5;142mnop[0m
   806f0:	d503201f 	[38;5;142mnop[0m
   806f4:	d503201f 	[38;5;142mnop[0m
   806f8:	d503201f 	[38;5;142mnop[0m
   806fc:	d503201f 	[38;5;142mnop[0m
   80700:	d503201f 	[38;5;142mnop[0m
   80704:	d503201f 	[38;5;142mnop[0m
   80708:	d503201f 	[38;5;142mnop[0m
   8070c:	d503201f 	[38;5;142mnop[0m
   80710:	d503201f 	[38;5;142mnop[0m
   80714:	d503201f 	[38;5;142mnop[0m
   80718:	d503201f 	[38;5;142mnop[0m
   8071c:	d503201f 	[38;5;142mnop[0m
   80720:	d503201f 	[38;5;142mnop[0m
   80724:	d503201f 	[38;5;142mnop[0m
   80728:	d503201f 	[38;5;142mnop[0m
   8072c:	d503201f 	[38;5;142mnop[0m
   80730:	d503201f 	[38;5;142mnop[0m
   80734:	d503201f 	[38;5;142mnop[0m
   80738:	d503201f 	[38;5;142mnop[0m
   8073c:	d503201f 	[38;5;142mnop[0m
   80740:	d503201f 	[38;5;142mnop[0m
   80744:	d503201f 	[38;5;142mnop[0m
   80748:	d503201f 	[38;5;142mnop[0m
   8074c:	d503201f 	[38;5;142mnop[0m
   80750:	d503201f 	[38;5;142mnop[0m
   80754:	d503201f 	[38;5;142mnop[0m
   80758:	d503201f 	[38;5;142mnop[0m
   8075c:	d503201f 	[38;5;142mnop[0m
   80760:	d503201f 	[38;5;142mnop[0m
   80764:	d503201f 	[38;5;142mnop[0m
   80768:	d503201f 	[38;5;142mnop[0m
   8076c:	d503201f 	[38;5;142mnop[0m
   80770:	d503201f 	[38;5;142mnop[0m
   80774:	d503201f 	[38;5;142mnop[0m
   80778:	d503201f 	[38;5;142mnop[0m
   8077c:	d503201f 	[38;5;142mnop[0m
   80780:	d503201f 	[38;5;142mnop[0m
   80784:	d503201f 	[38;5;142mnop[0m
   80788:	d503201f 	[38;5;142mnop[0m
   8078c:	d503201f 	[38;5;142mnop[0m
   80790:	d503201f 	[38;5;142mnop[0m
   80794:	d503201f 	[38;5;142mnop[0m
   80798:	d503201f 	[38;5;142mnop[0m
   8079c:	d503201f 	[38;5;142mnop[0m
   807a0:	d503201f 	[38;5;142mnop[0m
   807a4:	d503201f 	[38;5;142mnop[0m
   807a8:	d503201f 	[38;5;142mnop[0m
   807ac:	d503201f 	[38;5;142mnop[0m
   807b0:	d503201f 	[38;5;142mnop[0m
   807b4:	d503201f 	[38;5;142mnop[0m
   807b8:	d503201f 	[38;5;142mnop[0m
   807bc:	d503201f 	[38;5;142mnop[0m
   807c0:	d503201f 	[38;5;142mnop[0m
   807c4:	d503201f 	[38;5;142mnop[0m
   807c8:	d503201f 	[38;5;142mnop[0m
   807cc:	d503201f 	[38;5;142mnop[0m
   807d0:	d503201f 	[38;5;142mnop[0m
   807d4:	d503201f 	[38;5;142mnop[0m
   807d8:	d503201f 	[38;5;142mnop[0m
   807dc:	d503201f 	[38;5;142mnop[0m
   807e0:	d503201f 	[38;5;142mnop[0m
   807e4:	d503201f 	[38;5;142mnop[0m
   807e8:	d503201f 	[38;5;142mnop[0m
   807ec:	d503201f 	[38;5;142mnop[0m
   807f0:	d503201f 	[38;5;142mnop[0m
   807f4:	d503201f 	[38;5;142mnop[0m
   807f8:	d503201f 	[38;5;142mnop[0m
   807fc:	d503201f 	[38;5;142mnop[0m

0000000000080800 <vectors>:
   80800:	140001e1 	[38;5;142mb[0m	[38;5;134m80f84[0m <[38;5;40msync_invalid_el1t[0m>
   80804:	d503201f 	[38;5;142mnop[0m
   80808:	d503201f 	[38;5;142mnop[0m
   8080c:	d503201f 	[38;5;142mnop[0m
   80810:	d503201f 	[38;5;142mnop[0m
   80814:	d503201f 	[38;5;142mnop[0m
   80818:	d503201f 	[38;5;142mnop[0m
   8081c:	d503201f 	[38;5;142mnop[0m
   80820:	d503201f 	[38;5;142mnop[0m
   80824:	d503201f 	[38;5;142mnop[0m
   80828:	d503201f 	[38;5;142mnop[0m
   8082c:	d503201f 	[38;5;142mnop[0m
   80830:	d503201f 	[38;5;142mnop[0m
   80834:	d503201f 	[38;5;142mnop[0m
   80838:	d503201f 	[38;5;142mnop[0m
   8083c:	d503201f 	[38;5;142mnop[0m
   80840:	d503201f 	[38;5;142mnop[0m
   80844:	d503201f 	[38;5;142mnop[0m
   80848:	d503201f 	[38;5;142mnop[0m
   8084c:	d503201f 	[38;5;142mnop[0m
   80850:	d503201f 	[38;5;142mnop[0m
   80854:	d503201f 	[38;5;142mnop[0m
   80858:	d503201f 	[38;5;142mnop[0m
   8085c:	d503201f 	[38;5;142mnop[0m
   80860:	d503201f 	[38;5;142mnop[0m
   80864:	d503201f 	[38;5;142mnop[0m
   80868:	d503201f 	[38;5;142mnop[0m
   8086c:	d503201f 	[38;5;142mnop[0m
   80870:	d503201f 	[38;5;142mnop[0m
   80874:	d503201f 	[38;5;142mnop[0m
   80878:	d503201f 	[38;5;142mnop[0m
   8087c:	d503201f 	[38;5;142mnop[0m
   80880:	140001d6 	[38;5;142mb[0m	[38;5;134m80fd8[0m <[38;5;40mirq_invalid_el1t[0m>
   80884:	d503201f 	[38;5;142mnop[0m
   80888:	d503201f 	[38;5;142mnop[0m
   8088c:	d503201f 	[38;5;142mnop[0m
   80890:	d503201f 	[38;5;142mnop[0m
   80894:	d503201f 	[38;5;142mnop[0m
   80898:	d503201f 	[38;5;142mnop[0m
   8089c:	d503201f 	[38;5;142mnop[0m
   808a0:	d503201f 	[38;5;142mnop[0m
   808a4:	d503201f 	[38;5;142mnop[0m
   808a8:	d503201f 	[38;5;142mnop[0m
   808ac:	d503201f 	[38;5;142mnop[0m
   808b0:	d503201f 	[38;5;142mnop[0m
   808b4:	d503201f 	[38;5;142mnop[0m
   808b8:	d503201f 	[38;5;142mnop[0m
   808bc:	d503201f 	[38;5;142mnop[0m
   808c0:	d503201f 	[38;5;142mnop[0m
   808c4:	d503201f 	[38;5;142mnop[0m
   808c8:	d503201f 	[38;5;142mnop[0m
   808cc:	d503201f 	[38;5;142mnop[0m
   808d0:	d503201f 	[38;5;142mnop[0m
   808d4:	d503201f 	[38;5;142mnop[0m
   808d8:	d503201f 	[38;5;142mnop[0m
   808dc:	d503201f 	[38;5;142mnop[0m
   808e0:	d503201f 	[38;5;142mnop[0m
   808e4:	d503201f 	[38;5;142mnop[0m
   808e8:	d503201f 	[38;5;142mnop[0m
   808ec:	d503201f 	[38;5;142mnop[0m
   808f0:	d503201f 	[38;5;142mnop[0m
   808f4:	d503201f 	[38;5;142mnop[0m
   808f8:	d503201f 	[38;5;142mnop[0m
   808fc:	d503201f 	[38;5;142mnop[0m
   80900:	140001cb 	[38;5;142mb[0m	[38;5;134m8102c[0m <[38;5;40mfiq_invalid_el1t[0m>
   80904:	d503201f 	[38;5;142mnop[0m
   80908:	d503201f 	[38;5;142mnop[0m
   8090c:	d503201f 	[38;5;142mnop[0m
   80910:	d503201f 	[38;5;142mnop[0m
   80914:	d503201f 	[38;5;142mnop[0m
   80918:	d503201f 	[38;5;142mnop[0m
   8091c:	d503201f 	[38;5;142mnop[0m
   80920:	d503201f 	[38;5;142mnop[0m
   80924:	d503201f 	[38;5;142mnop[0m
   80928:	d503201f 	[38;5;142mnop[0m
   8092c:	d503201f 	[38;5;142mnop[0m
   80930:	d503201f 	[38;5;142mnop[0m
   80934:	d503201f 	[38;5;142mnop[0m
   80938:	d503201f 	[38;5;142mnop[0m
   8093c:	d503201f 	[38;5;142mnop[0m
   80940:	d503201f 	[38;5;142mnop[0m
   80944:	d503201f 	[38;5;142mnop[0m
   80948:	d503201f 	[38;5;142mnop[0m
   8094c:	d503201f 	[38;5;142mnop[0m
   80950:	d503201f 	[38;5;142mnop[0m
   80954:	d503201f 	[38;5;142mnop[0m
   80958:	d503201f 	[38;5;142mnop[0m
   8095c:	d503201f 	[38;5;142mnop[0m
   80960:	d503201f 	[38;5;142mnop[0m
   80964:	d503201f 	[38;5;142mnop[0m
   80968:	d503201f 	[38;5;142mnop[0m
   8096c:	d503201f 	[38;5;142mnop[0m
   80970:	d503201f 	[38;5;142mnop[0m
   80974:	d503201f 	[38;5;142mnop[0m
   80978:	d503201f 	[38;5;142mnop[0m
   8097c:	d503201f 	[38;5;142mnop[0m
   80980:	140001c0 	[38;5;142mb[0m	[38;5;134m81080[0m <[38;5;40merror_invalid_el1t[0m>
   80984:	d503201f 	[38;5;142mnop[0m
   80988:	d503201f 	[38;5;142mnop[0m
   8098c:	d503201f 	[38;5;142mnop[0m
   80990:	d503201f 	[38;5;142mnop[0m
   80994:	d503201f 	[38;5;142mnop[0m
   80998:	d503201f 	[38;5;142mnop[0m
   8099c:	d503201f 	[38;5;142mnop[0m
   809a0:	d503201f 	[38;5;142mnop[0m
   809a4:	d503201f 	[38;5;142mnop[0m
   809a8:	d503201f 	[38;5;142mnop[0m
   809ac:	d503201f 	[38;5;142mnop[0m
   809b0:	d503201f 	[38;5;142mnop[0m
   809b4:	d503201f 	[38;5;142mnop[0m
   809b8:	d503201f 	[38;5;142mnop[0m
   809bc:	d503201f 	[38;5;142mnop[0m
   809c0:	d503201f 	[38;5;142mnop[0m
   809c4:	d503201f 	[38;5;142mnop[0m
   809c8:	d503201f 	[38;5;142mnop[0m
   809cc:	d503201f 	[38;5;142mnop[0m
   809d0:	d503201f 	[38;5;142mnop[0m
   809d4:	d503201f 	[38;5;142mnop[0m
   809d8:	d503201f 	[38;5;142mnop[0m
   809dc:	d503201f 	[38;5;142mnop[0m
   809e0:	d503201f 	[38;5;142mnop[0m
   809e4:	d503201f 	[38;5;142mnop[0m
   809e8:	d503201f 	[38;5;142mnop[0m
   809ec:	d503201f 	[38;5;142mnop[0m
   809f0:	d503201f 	[38;5;142mnop[0m
   809f4:	d503201f 	[38;5;142mnop[0m
   809f8:	d503201f 	[38;5;142mnop[0m
   809fc:	d503201f 	[38;5;142mnop[0m
   80a00:	140001b5 	[38;5;142mb[0m	[38;5;134m810d4[0m <[38;5;40msync_invalid_el1h[0m>
   80a04:	d503201f 	[38;5;142mnop[0m
   80a08:	d503201f 	[38;5;142mnop[0m
   80a0c:	d503201f 	[38;5;142mnop[0m
   80a10:	d503201f 	[38;5;142mnop[0m
   80a14:	d503201f 	[38;5;142mnop[0m
   80a18:	d503201f 	[38;5;142mnop[0m
   80a1c:	d503201f 	[38;5;142mnop[0m
   80a20:	d503201f 	[38;5;142mnop[0m
   80a24:	d503201f 	[38;5;142mnop[0m
   80a28:	d503201f 	[38;5;142mnop[0m
   80a2c:	d503201f 	[38;5;142mnop[0m
   80a30:	d503201f 	[38;5;142mnop[0m
   80a34:	d503201f 	[38;5;142mnop[0m
   80a38:	d503201f 	[38;5;142mnop[0m
   80a3c:	d503201f 	[38;5;142mnop[0m
   80a40:	d503201f 	[38;5;142mnop[0m
   80a44:	d503201f 	[38;5;142mnop[0m
   80a48:	d503201f 	[38;5;142mnop[0m
   80a4c:	d503201f 	[38;5;142mnop[0m
   80a50:	d503201f 	[38;5;142mnop[0m
   80a54:	d503201f 	[38;5;142mnop[0m
   80a58:	d503201f 	[38;5;142mnop[0m
   80a5c:	d503201f 	[38;5;142mnop[0m
   80a60:	d503201f 	[38;5;142mnop[0m
   80a64:	d503201f 	[38;5;142mnop[0m
   80a68:	d503201f 	[38;5;142mnop[0m
   80a6c:	d503201f 	[38;5;142mnop[0m
   80a70:	d503201f 	[38;5;142mnop[0m
   80a74:	d503201f 	[38;5;142mnop[0m
   80a78:	d503201f 	[38;5;142mnop[0m
   80a7c:	d503201f 	[38;5;142mnop[0m
   80a80:	1400027c 	[38;5;142mb[0m	[38;5;134m81470[0m <[38;5;40mhandle_el1_irq[0m>
   80a84:	d503201f 	[38;5;142mnop[0m
   80a88:	d503201f 	[38;5;142mnop[0m
   80a8c:	d503201f 	[38;5;142mnop[0m
   80a90:	d503201f 	[38;5;142mnop[0m
   80a94:	d503201f 	[38;5;142mnop[0m
   80a98:	d503201f 	[38;5;142mnop[0m
   80a9c:	d503201f 	[38;5;142mnop[0m
   80aa0:	d503201f 	[38;5;142mnop[0m
   80aa4:	d503201f 	[38;5;142mnop[0m
   80aa8:	d503201f 	[38;5;142mnop[0m
   80aac:	d503201f 	[38;5;142mnop[0m
   80ab0:	d503201f 	[38;5;142mnop[0m
   80ab4:	d503201f 	[38;5;142mnop[0m
   80ab8:	d503201f 	[38;5;142mnop[0m
   80abc:	d503201f 	[38;5;142mnop[0m
   80ac0:	d503201f 	[38;5;142mnop[0m
   80ac4:	d503201f 	[38;5;142mnop[0m
   80ac8:	d503201f 	[38;5;142mnop[0m
   80acc:	d503201f 	[38;5;142mnop[0m
   80ad0:	d503201f 	[38;5;142mnop[0m
   80ad4:	d503201f 	[38;5;142mnop[0m
   80ad8:	d503201f 	[38;5;142mnop[0m
   80adc:	d503201f 	[38;5;142mnop[0m
   80ae0:	d503201f 	[38;5;142mnop[0m
   80ae4:	d503201f 	[38;5;142mnop[0m
   80ae8:	d503201f 	[38;5;142mnop[0m
   80aec:	d503201f 	[38;5;142mnop[0m
   80af0:	d503201f 	[38;5;142mnop[0m
   80af4:	d503201f 	[38;5;142mnop[0m
   80af8:	d503201f 	[38;5;142mnop[0m
   80afc:	d503201f 	[38;5;142mnop[0m
   80b00:	1400018a 	[38;5;142mb[0m	[38;5;134m81128[0m <[38;5;40mfiq_invalid_el1h[0m>
   80b04:	d503201f 	[38;5;142mnop[0m
   80b08:	d503201f 	[38;5;142mnop[0m
   80b0c:	d503201f 	[38;5;142mnop[0m
   80b10:	d503201f 	[38;5;142mnop[0m
   80b14:	d503201f 	[38;5;142mnop[0m
   80b18:	d503201f 	[38;5;142mnop[0m
   80b1c:	d503201f 	[38;5;142mnop[0m
   80b20:	d503201f 	[38;5;142mnop[0m
   80b24:	d503201f 	[38;5;142mnop[0m
   80b28:	d503201f 	[38;5;142mnop[0m
   80b2c:	d503201f 	[38;5;142mnop[0m
   80b30:	d503201f 	[38;5;142mnop[0m
   80b34:	d503201f 	[38;5;142mnop[0m
   80b38:	d503201f 	[38;5;142mnop[0m
   80b3c:	d503201f 	[38;5;142mnop[0m
   80b40:	d503201f 	[38;5;142mnop[0m
   80b44:	d503201f 	[38;5;142mnop[0m
   80b48:	d503201f 	[38;5;142mnop[0m
   80b4c:	d503201f 	[38;5;142mnop[0m
   80b50:	d503201f 	[38;5;142mnop[0m
   80b54:	d503201f 	[38;5;142mnop[0m
   80b58:	d503201f 	[38;5;142mnop[0m
   80b5c:	d503201f 	[38;5;142mnop[0m
   80b60:	d503201f 	[38;5;142mnop[0m
   80b64:	d503201f 	[38;5;142mnop[0m
   80b68:	d503201f 	[38;5;142mnop[0m
   80b6c:	d503201f 	[38;5;142mnop[0m
   80b70:	d503201f 	[38;5;142mnop[0m
   80b74:	d503201f 	[38;5;142mnop[0m
   80b78:	d503201f 	[38;5;142mnop[0m
   80b7c:	d503201f 	[38;5;142mnop[0m
   80b80:	1400017f 	[38;5;142mb[0m	[38;5;134m8117c[0m <[38;5;40merror_invalid_el1h[0m>
   80b84:	d503201f 	[38;5;142mnop[0m
   80b88:	d503201f 	[38;5;142mnop[0m
   80b8c:	d503201f 	[38;5;142mnop[0m
   80b90:	d503201f 	[38;5;142mnop[0m
   80b94:	d503201f 	[38;5;142mnop[0m
   80b98:	d503201f 	[38;5;142mnop[0m
   80b9c:	d503201f 	[38;5;142mnop[0m
   80ba0:	d503201f 	[38;5;142mnop[0m
   80ba4:	d503201f 	[38;5;142mnop[0m
   80ba8:	d503201f 	[38;5;142mnop[0m
   80bac:	d503201f 	[38;5;142mnop[0m
   80bb0:	d503201f 	[38;5;142mnop[0m
   80bb4:	d503201f 	[38;5;142mnop[0m
   80bb8:	d503201f 	[38;5;142mnop[0m
   80bbc:	d503201f 	[38;5;142mnop[0m
   80bc0:	d503201f 	[38;5;142mnop[0m
   80bc4:	d503201f 	[38;5;142mnop[0m
   80bc8:	d503201f 	[38;5;142mnop[0m
   80bcc:	d503201f 	[38;5;142mnop[0m
   80bd0:	d503201f 	[38;5;142mnop[0m
   80bd4:	d503201f 	[38;5;142mnop[0m
   80bd8:	d503201f 	[38;5;142mnop[0m
   80bdc:	d503201f 	[38;5;142mnop[0m
   80be0:	d503201f 	[38;5;142mnop[0m
   80be4:	d503201f 	[38;5;142mnop[0m
   80be8:	d503201f 	[38;5;142mnop[0m
   80bec:	d503201f 	[38;5;142mnop[0m
   80bf0:	d503201f 	[38;5;142mnop[0m
   80bf4:	d503201f 	[38;5;142mnop[0m
   80bf8:	d503201f 	[38;5;142mnop[0m
   80bfc:	d503201f 	[38;5;142mnop[0m
   80c00:	14000174 	[38;5;142mb[0m	[38;5;134m811d0[0m <[38;5;40msync_invalid_el0_64[0m>
   80c04:	d503201f 	[38;5;142mnop[0m
   80c08:	d503201f 	[38;5;142mnop[0m
   80c0c:	d503201f 	[38;5;142mnop[0m
   80c10:	d503201f 	[38;5;142mnop[0m
   80c14:	d503201f 	[38;5;142mnop[0m
   80c18:	d503201f 	[38;5;142mnop[0m
   80c1c:	d503201f 	[38;5;142mnop[0m
   80c20:	d503201f 	[38;5;142mnop[0m
   80c24:	d503201f 	[38;5;142mnop[0m
   80c28:	d503201f 	[38;5;142mnop[0m
   80c2c:	d503201f 	[38;5;142mnop[0m
   80c30:	d503201f 	[38;5;142mnop[0m
   80c34:	d503201f 	[38;5;142mnop[0m
   80c38:	d503201f 	[38;5;142mnop[0m
   80c3c:	d503201f 	[38;5;142mnop[0m
   80c40:	d503201f 	[38;5;142mnop[0m
   80c44:	d503201f 	[38;5;142mnop[0m
   80c48:	d503201f 	[38;5;142mnop[0m
   80c4c:	d503201f 	[38;5;142mnop[0m
   80c50:	d503201f 	[38;5;142mnop[0m
   80c54:	d503201f 	[38;5;142mnop[0m
   80c58:	d503201f 	[38;5;142mnop[0m
   80c5c:	d503201f 	[38;5;142mnop[0m
   80c60:	d503201f 	[38;5;142mnop[0m
   80c64:	d503201f 	[38;5;142mnop[0m
   80c68:	d503201f 	[38;5;142mnop[0m
   80c6c:	d503201f 	[38;5;142mnop[0m
   80c70:	d503201f 	[38;5;142mnop[0m
   80c74:	d503201f 	[38;5;142mnop[0m
   80c78:	d503201f 	[38;5;142mnop[0m
   80c7c:	d503201f 	[38;5;142mnop[0m
   80c80:	14000169 	[38;5;142mb[0m	[38;5;134m81224[0m <[38;5;40mirq_invalid_el0_64[0m>
   80c84:	d503201f 	[38;5;142mnop[0m
   80c88:	d503201f 	[38;5;142mnop[0m
   80c8c:	d503201f 	[38;5;142mnop[0m
   80c90:	d503201f 	[38;5;142mnop[0m
   80c94:	d503201f 	[38;5;142mnop[0m
   80c98:	d503201f 	[38;5;142mnop[0m
   80c9c:	d503201f 	[38;5;142mnop[0m
   80ca0:	d503201f 	[38;5;142mnop[0m
   80ca4:	d503201f 	[38;5;142mnop[0m
   80ca8:	d503201f 	[38;5;142mnop[0m
   80cac:	d503201f 	[38;5;142mnop[0m
   80cb0:	d503201f 	[38;5;142mnop[0m
   80cb4:	d503201f 	[38;5;142mnop[0m
   80cb8:	d503201f 	[38;5;142mnop[0m
   80cbc:	d503201f 	[38;5;142mnop[0m
   80cc0:	d503201f 	[38;5;142mnop[0m
   80cc4:	d503201f 	[38;5;142mnop[0m
   80cc8:	d503201f 	[38;5;142mnop[0m
   80ccc:	d503201f 	[38;5;142mnop[0m
   80cd0:	d503201f 	[38;5;142mnop[0m
   80cd4:	d503201f 	[38;5;142mnop[0m
   80cd8:	d503201f 	[38;5;142mnop[0m
   80cdc:	d503201f 	[38;5;142mnop[0m
   80ce0:	d503201f 	[38;5;142mnop[0m
   80ce4:	d503201f 	[38;5;142mnop[0m
   80ce8:	d503201f 	[38;5;142mnop[0m
   80cec:	d503201f 	[38;5;142mnop[0m
   80cf0:	d503201f 	[38;5;142mnop[0m
   80cf4:	d503201f 	[38;5;142mnop[0m
   80cf8:	d503201f 	[38;5;142mnop[0m
   80cfc:	d503201f 	[38;5;142mnop[0m
   80d00:	1400015e 	[38;5;142mb[0m	[38;5;134m81278[0m <[38;5;40mfiq_invalid_el0_64[0m>
   80d04:	d503201f 	[38;5;142mnop[0m
   80d08:	d503201f 	[38;5;142mnop[0m
   80d0c:	d503201f 	[38;5;142mnop[0m
   80d10:	d503201f 	[38;5;142mnop[0m
   80d14:	d503201f 	[38;5;142mnop[0m
   80d18:	d503201f 	[38;5;142mnop[0m
   80d1c:	d503201f 	[38;5;142mnop[0m
   80d20:	d503201f 	[38;5;142mnop[0m
   80d24:	d503201f 	[38;5;142mnop[0m
   80d28:	d503201f 	[38;5;142mnop[0m
   80d2c:	d503201f 	[38;5;142mnop[0m
   80d30:	d503201f 	[38;5;142mnop[0m
   80d34:	d503201f 	[38;5;142mnop[0m
   80d38:	d503201f 	[38;5;142mnop[0m
   80d3c:	d503201f 	[38;5;142mnop[0m
   80d40:	d503201f 	[38;5;142mnop[0m
   80d44:	d503201f 	[38;5;142mnop[0m
   80d48:	d503201f 	[38;5;142mnop[0m
   80d4c:	d503201f 	[38;5;142mnop[0m
   80d50:	d503201f 	[38;5;142mnop[0m
   80d54:	d503201f 	[38;5;142mnop[0m
   80d58:	d503201f 	[38;5;142mnop[0m
   80d5c:	d503201f 	[38;5;142mnop[0m
   80d60:	d503201f 	[38;5;142mnop[0m
   80d64:	d503201f 	[38;5;142mnop[0m
   80d68:	d503201f 	[38;5;142mnop[0m
   80d6c:	d503201f 	[38;5;142mnop[0m
   80d70:	d503201f 	[38;5;142mnop[0m
   80d74:	d503201f 	[38;5;142mnop[0m
   80d78:	d503201f 	[38;5;142mnop[0m
   80d7c:	d503201f 	[38;5;142mnop[0m
   80d80:	14000153 	[38;5;142mb[0m	[38;5;134m812cc[0m <[38;5;40merror_invalid_el0_64[0m>
   80d84:	d503201f 	[38;5;142mnop[0m
   80d88:	d503201f 	[38;5;142mnop[0m
   80d8c:	d503201f 	[38;5;142mnop[0m
   80d90:	d503201f 	[38;5;142mnop[0m
   80d94:	d503201f 	[38;5;142mnop[0m
   80d98:	d503201f 	[38;5;142mnop[0m
   80d9c:	d503201f 	[38;5;142mnop[0m
   80da0:	d503201f 	[38;5;142mnop[0m
   80da4:	d503201f 	[38;5;142mnop[0m
   80da8:	d503201f 	[38;5;142mnop[0m
   80dac:	d503201f 	[38;5;142mnop[0m
   80db0:	d503201f 	[38;5;142mnop[0m
   80db4:	d503201f 	[38;5;142mnop[0m
   80db8:	d503201f 	[38;5;142mnop[0m
   80dbc:	d503201f 	[38;5;142mnop[0m
   80dc0:	d503201f 	[38;5;142mnop[0m
   80dc4:	d503201f 	[38;5;142mnop[0m
   80dc8:	d503201f 	[38;5;142mnop[0m
   80dcc:	d503201f 	[38;5;142mnop[0m
   80dd0:	d503201f 	[38;5;142mnop[0m
   80dd4:	d503201f 	[38;5;142mnop[0m
   80dd8:	d503201f 	[38;5;142mnop[0m
   80ddc:	d503201f 	[38;5;142mnop[0m
   80de0:	d503201f 	[38;5;142mnop[0m
   80de4:	d503201f 	[38;5;142mnop[0m
   80de8:	d503201f 	[38;5;142mnop[0m
   80dec:	d503201f 	[38;5;142mnop[0m
   80df0:	d503201f 	[38;5;142mnop[0m
   80df4:	d503201f 	[38;5;142mnop[0m
   80df8:	d503201f 	[38;5;142mnop[0m
   80dfc:	d503201f 	[38;5;142mnop[0m
   80e00:	14000148 	[38;5;142mb[0m	[38;5;134m81320[0m <[38;5;40msync_invalid_el0_32[0m>
   80e04:	d503201f 	[38;5;142mnop[0m
   80e08:	d503201f 	[38;5;142mnop[0m
   80e0c:	d503201f 	[38;5;142mnop[0m
   80e10:	d503201f 	[38;5;142mnop[0m
   80e14:	d503201f 	[38;5;142mnop[0m
   80e18:	d503201f 	[38;5;142mnop[0m
   80e1c:	d503201f 	[38;5;142mnop[0m
   80e20:	d503201f 	[38;5;142mnop[0m
   80e24:	d503201f 	[38;5;142mnop[0m
   80e28:	d503201f 	[38;5;142mnop[0m
   80e2c:	d503201f 	[38;5;142mnop[0m
   80e30:	d503201f 	[38;5;142mnop[0m
   80e34:	d503201f 	[38;5;142mnop[0m
   80e38:	d503201f 	[38;5;142mnop[0m
   80e3c:	d503201f 	[38;5;142mnop[0m
   80e40:	d503201f 	[38;5;142mnop[0m
   80e44:	d503201f 	[38;5;142mnop[0m
   80e48:	d503201f 	[38;5;142mnop[0m
   80e4c:	d503201f 	[38;5;142mnop[0m
   80e50:	d503201f 	[38;5;142mnop[0m
   80e54:	d503201f 	[38;5;142mnop[0m
   80e58:	d503201f 	[38;5;142mnop[0m
   80e5c:	d503201f 	[38;5;142mnop[0m
   80e60:	d503201f 	[38;5;142mnop[0m
   80e64:	d503201f 	[38;5;142mnop[0m
   80e68:	d503201f 	[38;5;142mnop[0m
   80e6c:	d503201f 	[38;5;142mnop[0m
   80e70:	d503201f 	[38;5;142mnop[0m
   80e74:	d503201f 	[38;5;142mnop[0m
   80e78:	d503201f 	[38;5;142mnop[0m
   80e7c:	d503201f 	[38;5;142mnop[0m
   80e80:	1400013d 	[38;5;142mb[0m	[38;5;134m81374[0m <[38;5;40mirq_invalid_el0_32[0m>
   80e84:	d503201f 	[38;5;142mnop[0m
   80e88:	d503201f 	[38;5;142mnop[0m
   80e8c:	d503201f 	[38;5;142mnop[0m
   80e90:	d503201f 	[38;5;142mnop[0m
   80e94:	d503201f 	[38;5;142mnop[0m
   80e98:	d503201f 	[38;5;142mnop[0m
   80e9c:	d503201f 	[38;5;142mnop[0m
   80ea0:	d503201f 	[38;5;142mnop[0m
   80ea4:	d503201f 	[38;5;142mnop[0m
   80ea8:	d503201f 	[38;5;142mnop[0m
   80eac:	d503201f 	[38;5;142mnop[0m
   80eb0:	d503201f 	[38;5;142mnop[0m
   80eb4:	d503201f 	[38;5;142mnop[0m
   80eb8:	d503201f 	[38;5;142mnop[0m
   80ebc:	d503201f 	[38;5;142mnop[0m
   80ec0:	d503201f 	[38;5;142mnop[0m
   80ec4:	d503201f 	[38;5;142mnop[0m
   80ec8:	d503201f 	[38;5;142mnop[0m
   80ecc:	d503201f 	[38;5;142mnop[0m
   80ed0:	d503201f 	[38;5;142mnop[0m
   80ed4:	d503201f 	[38;5;142mnop[0m
   80ed8:	d503201f 	[38;5;142mnop[0m
   80edc:	d503201f 	[38;5;142mnop[0m
   80ee0:	d503201f 	[38;5;142mnop[0m
   80ee4:	d503201f 	[38;5;142mnop[0m
   80ee8:	d503201f 	[38;5;142mnop[0m
   80eec:	d503201f 	[38;5;142mnop[0m
   80ef0:	d503201f 	[38;5;142mnop[0m
   80ef4:	d503201f 	[38;5;142mnop[0m
   80ef8:	d503201f 	[38;5;142mnop[0m
   80efc:	d503201f 	[38;5;142mnop[0m
   80f00:	14000132 	[38;5;142mb[0m	[38;5;134m813c8[0m <[38;5;40mfiq_invalid_el0_32[0m>
   80f04:	d503201f 	[38;5;142mnop[0m
   80f08:	d503201f 	[38;5;142mnop[0m
   80f0c:	d503201f 	[38;5;142mnop[0m
   80f10:	d503201f 	[38;5;142mnop[0m
   80f14:	d503201f 	[38;5;142mnop[0m
   80f18:	d503201f 	[38;5;142mnop[0m
   80f1c:	d503201f 	[38;5;142mnop[0m
   80f20:	d503201f 	[38;5;142mnop[0m
   80f24:	d503201f 	[38;5;142mnop[0m
   80f28:	d503201f 	[38;5;142mnop[0m
   80f2c:	d503201f 	[38;5;142mnop[0m
   80f30:	d503201f 	[38;5;142mnop[0m
   80f34:	d503201f 	[38;5;142mnop[0m
   80f38:	d503201f 	[38;5;142mnop[0m
   80f3c:	d503201f 	[38;5;142mnop[0m
   80f40:	d503201f 	[38;5;142mnop[0m
   80f44:	d503201f 	[38;5;142mnop[0m
   80f48:	d503201f 	[38;5;142mnop[0m
   80f4c:	d503201f 	[38;5;142mnop[0m
   80f50:	d503201f 	[38;5;142mnop[0m
   80f54:	d503201f 	[38;5;142mnop[0m
   80f58:	d503201f 	[38;5;142mnop[0m
   80f5c:	d503201f 	[38;5;142mnop[0m
   80f60:	d503201f 	[38;5;142mnop[0m
   80f64:	d503201f 	[38;5;142mnop[0m
   80f68:	d503201f 	[38;5;142mnop[0m
   80f6c:	d503201f 	[38;5;142mnop[0m
   80f70:	d503201f 	[38;5;142mnop[0m
   80f74:	d503201f 	[38;5;142mnop[0m
   80f78:	d503201f 	[38;5;142mnop[0m
   80f7c:	d503201f 	[38;5;142mnop[0m
   80f80:	14000127 	[38;5;142mb[0m	[38;5;134m8141c[0m <[38;5;40merror_invalid_el0_32[0m>

0000000000080f84 <sync_invalid_el1t>:
   80f84:	d10403ff 	[38;5;142msub[0m	[38;5;27msp[0m, [38;5;27msp[0m, [38;5;134m#0x100[0m
   80f88:	a90007e0 	[38;5;142mstp[0m	[38;5;27mx0[0m, [38;5;27mx1[0m, [[38;5;27msp[0m]
   80f8c:	a9010fe2 	[38;5;142mstp[0m	[38;5;27mx2[0m, [38;5;27mx3[0m, [[38;5;27msp[0m, [38;5;134m#16[0m]
   80f90:	a90217e4 	[38;5;142mstp[0m	[38;5;27mx4[0m, [38;5;27mx5[0m, [[38;5;27msp[0m, [38;5;134m#32[0m]
   80f94:	a9031fe6 	[38;5;142mstp[0m	[38;5;27mx6[0m, [38;5;27mx7[0m, [[38;5;27msp[0m, [38;5;134m#48[0m]
   80f98:	a90427e8 	[38;5;142mstp[0m	[38;5;27mx8[0m, [38;5;27mx9[0m, [[38;5;27msp[0m, [38;5;134m#64[0m]
   80f9c:	a9052fea 	[38;5;142mstp[0m	[38;5;27mx10[0m, [38;5;27mx11[0m, [[38;5;27msp[0m, [38;5;134m#80[0m]
   80fa0:	a90637ec 	[38;5;142mstp[0m	[38;5;27mx12[0m, [38;5;27mx13[0m, [[38;5;27msp[0m, [38;5;134m#96[0m]
   80fa4:	a9073fee 	[38;5;142mstp[0m	[38;5;27mx14[0m, [38;5;27mx15[0m, [[38;5;27msp[0m, [38;5;134m#112[0m]
   80fa8:	a90847f0 	[38;5;142mstp[0m	[38;5;27mx16[0m, [38;5;27mx17[0m, [[38;5;27msp[0m, [38;5;134m#128[0m]
   80fac:	a9094ff2 	[38;5;142mstp[0m	[38;5;27mx18[0m, [38;5;27mx19[0m, [[38;5;27msp[0m, [38;5;134m#144[0m]
   80fb0:	a90a57f4 	[38;5;142mstp[0m	[38;5;27mx20[0m, [38;5;27mx21[0m, [[38;5;27msp[0m, [38;5;134m#160[0m]
   80fb4:	a90b5ff6 	[38;5;142mstp[0m	[38;5;27mx22[0m, [38;5;27mx23[0m, [[38;5;27msp[0m, [38;5;134m#176[0m]
   80fb8:	a90c67f8 	[38;5;142mstp[0m	[38;5;27mx24[0m, [38;5;27mx25[0m, [[38;5;27msp[0m, [38;5;134m#192[0m]
   80fbc:	a90d6ffa 	[38;5;142mstp[0m	[38;5;27mx26[0m, [38;5;27mx27[0m, [[38;5;27msp[0m, [38;5;134m#208[0m]
   80fc0:	a90e77fc 	[38;5;142mstp[0m	[38;5;27mx28[0m, [38;5;27mx29[0m, [[38;5;27msp[0m, [38;5;134m#224[0m]
   80fc4:	f9007bfe 	[38;5;142mstr[0m	[38;5;27mx30[0m, [[38;5;27msp[0m, [38;5;134m#240[0m]
   80fc8:	d2800000 	[38;5;142mmov[0m	[38;5;27mx0[0m, [38;5;134m#0x0                   [0m[38;5;250m	// #0[0m
   80fcc:	d5385201 	[38;5;142mmrs[0m	[38;5;27mx1[0m, [38;5;27mesr_el1[0m
   80fd0:	d5384022 	[38;5;142mmrs[0m	[38;5;27mx2[0m, [38;5;27melr_el1[0m
   80fd4:	1400014b 	[38;5;142mb[0m	[38;5;134m81500[0m <[38;5;40merr_hang[0m>

0000000000080fd8 <irq_invalid_el1t>:
   80fd8:	d10403ff 	[38;5;142msub[0m	[38;5;27msp[0m, [38;5;27msp[0m, [38;5;134m#0x100[0m
   80fdc:	a90007e0 	[38;5;142mstp[0m	[38;5;27mx0[0m, [38;5;27mx1[0m, [[38;5;27msp[0m]
   80fe0:	a9010fe2 	[38;5;142mstp[0m	[38;5;27mx2[0m, [38;5;27mx3[0m, [[38;5;27msp[0m, [38;5;134m#16[0m]
   80fe4:	a90217e4 	[38;5;142mstp[0m	[38;5;27mx4[0m, [38;5;27mx5[0m, [[38;5;27msp[0m, [38;5;134m#32[0m]
   80fe8:	a9031fe6 	[38;5;142mstp[0m	[38;5;27mx6[0m, [38;5;27mx7[0m, [[38;5;27msp[0m, [38;5;134m#48[0m]
   80fec:	a90427e8 	[38;5;142mstp[0m	[38;5;27mx8[0m, [38;5;27mx9[0m, [[38;5;27msp[0m, [38;5;134m#64[0m]
   80ff0:	a9052fea 	[38;5;142mstp[0m	[38;5;27mx10[0m, [38;5;27mx11[0m, [[38;5;27msp[0m, [38;5;134m#80[0m]
   80ff4:	a90637ec 	[38;5;142mstp[0m	[38;5;27mx12[0m, [38;5;27mx13[0m, [[38;5;27msp[0m, [38;5;134m#96[0m]
   80ff8:	a9073fee 	[38;5;142mstp[0m	[38;5;27mx14[0m, [38;5;27mx15[0m, [[38;5;27msp[0m, [38;5;134m#112[0m]
   80ffc:	a90847f0 	[38;5;142mstp[0m	[38;5;27mx16[0m, [38;5;27mx17[0m, [[38;5;27msp[0m, [38;5;134m#128[0m]
   81000:	a9094ff2 	[38;5;142mstp[0m	[38;5;27mx18[0m, [38;5;27mx19[0m, [[38;5;27msp[0m, [38;5;134m#144[0m]
   81004:	a90a57f4 	[38;5;142mstp[0m	[38;5;27mx20[0m, [38;5;27mx21[0m, [[38;5;27msp[0m, [38;5;134m#160[0m]
   81008:	a90b5ff6 	[38;5;142mstp[0m	[38;5;27mx22[0m, [38;5;27mx23[0m, [[38;5;27msp[0m, [38;5;134m#176[0m]
   8100c:	a90c67f8 	[38;5;142mstp[0m	[38;5;27mx24[0m, [38;5;27mx25[0m, [[38;5;27msp[0m, [38;5;134m#192[0m]
   81010:	a90d6ffa 	[38;5;142mstp[0m	[38;5;27mx26[0m, [38;5;27mx27[0m, [[38;5;27msp[0m, [38;5;134m#208[0m]
   81014:	a90e77fc 	[38;5;142mstp[0m	[38;5;27mx28[0m, [38;5;27mx29[0m, [[38;5;27msp[0m, [38;5;134m#224[0m]
   81018:	f9007bfe 	[38;5;142mstr[0m	[38;5;27mx30[0m, [[38;5;27msp[0m, [38;5;134m#240[0m]
   8101c:	d2800020 	[38;5;142mmov[0m	[38;5;27mx0[0m, [38;5;134m#0x1                   [0m[38;5;250m	// #1[0m
   81020:	d5385201 	[38;5;142mmrs[0m	[38;5;27mx1[0m, [38;5;27mesr_el1[0m
   81024:	d5384022 	[38;5;142mmrs[0m	[38;5;27mx2[0m, [38;5;27melr_el1[0m
   81028:	14000136 	[38;5;142mb[0m	[38;5;134m81500[0m <[38;5;40merr_hang[0m>

000000000008102c <fiq_invalid_el1t>:
   8102c:	d10403ff 	[38;5;142msub[0m	[38;5;27msp[0m, [38;5;27msp[0m, [38;5;134m#0x100[0m
   81030:	a90007e0 	[38;5;142mstp[0m	[38;5;27mx0[0m, [38;5;27mx1[0m, [[38;5;27msp[0m]
   81034:	a9010fe2 	[38;5;142mstp[0m	[38;5;27mx2[0m, [38;5;27mx3[0m, [[38;5;27msp[0m, [38;5;134m#16[0m]
   81038:	a90217e4 	[38;5;142mstp[0m	[38;5;27mx4[0m, [38;5;27mx5[0m, [[38;5;27msp[0m, [38;5;134m#32[0m]
   8103c:	a9031fe6 	[38;5;142mstp[0m	[38;5;27mx6[0m, [38;5;27mx7[0m, [[38;5;27msp[0m, [38;5;134m#48[0m]
   81040:	a90427e8 	[38;5;142mstp[0m	[38;5;27mx8[0m, [38;5;27mx9[0m, [[38;5;27msp[0m, [38;5;134m#64[0m]
   81044:	a9052fea 	[38;5;142mstp[0m	[38;5;27mx10[0m, [38;5;27mx11[0m, [[38;5;27msp[0m, [38;5;134m#80[0m]
   81048:	a90637ec 	[38;5;142mstp[0m	[38;5;27mx12[0m, [38;5;27mx13[0m, [[38;5;27msp[0m, [38;5;134m#96[0m]
   8104c:	a9073fee 	[38;5;142mstp[0m	[38;5;27mx14[0m, [38;5;27mx15[0m, [[38;5;27msp[0m, [38;5;134m#112[0m]
   81050:	a90847f0 	[38;5;142mstp[0m	[38;5;27mx16[0m, [38;5;27mx17[0m, [[38;5;27msp[0m, [38;5;134m#128[0m]
   81054:	a9094ff2 	[38;5;142mstp[0m	[38;5;27mx18[0m, [38;5;27mx19[0m, [[38;5;27msp[0m, [38;5;134m#144[0m]
   81058:	a90a57f4 	[38;5;142mstp[0m	[38;5;27mx20[0m, [38;5;27mx21[0m, [[38;5;27msp[0m, [38;5;134m#160[0m]
   8105c:	a90b5ff6 	[38;5;142mstp[0m	[38;5;27mx22[0m, [38;5;27mx23[0m, [[38;5;27msp[0m, [38;5;134m#176[0m]
   81060:	a90c67f8 	[38;5;142mstp[0m	[38;5;27mx24[0m, [38;5;27mx25[0m, [[38;5;27msp[0m, [38;5;134m#192[0m]
   81064:	a90d6ffa 	[38;5;142mstp[0m	[38;5;27mx26[0m, [38;5;27mx27[0m, [[38;5;27msp[0m, [38;5;134m#208[0m]
   81068:	a90e77fc 	[38;5;142mstp[0m	[38;5;27mx28[0m, [38;5;27mx29[0m, [[38;5;27msp[0m, [38;5;134m#224[0m]
   8106c:	f9007bfe 	[38;5;142mstr[0m	[38;5;27mx30[0m, [[38;5;27msp[0m, [38;5;134m#240[0m]
   81070:	d2800040 	[38;5;142mmov[0m	[38;5;27mx0[0m, [38;5;134m#0x2                   [0m[38;5;250m	// #2[0m
   81074:	d5385201 	[38;5;142mmrs[0m	[38;5;27mx1[0m, [38;5;27mesr_el1[0m
   81078:	d5384022 	[38;5;142mmrs[0m	[38;5;27mx2[0m, [38;5;27melr_el1[0m
   8107c:	14000121 	[38;5;142mb[0m	[38;5;134m81500[0m <[38;5;40merr_hang[0m>

0000000000081080 <error_invalid_el1t>:
   81080:	d10403ff 	[38;5;142msub[0m	[38;5;27msp[0m, [38;5;27msp[0m, [38;5;134m#0x100[0m
   81084:	a90007e0 	[38;5;142mstp[0m	[38;5;27mx0[0m, [38;5;27mx1[0m, [[38;5;27msp[0m]
   81088:	a9010fe2 	[38;5;142mstp[0m	[38;5;27mx2[0m, [38;5;27mx3[0m, [[38;5;27msp[0m, [38;5;134m#16[0m]
   8108c:	a90217e4 	[38;5;142mstp[0m	[38;5;27mx4[0m, [38;5;27mx5[0m, [[38;5;27msp[0m, [38;5;134m#32[0m]
   81090:	a9031fe6 	[38;5;142mstp[0m	[38;5;27mx6[0m, [38;5;27mx7[0m, [[38;5;27msp[0m, [38;5;134m#48[0m]
   81094:	a90427e8 	[38;5;142mstp[0m	[38;5;27mx8[0m, [38;5;27mx9[0m, [[38;5;27msp[0m, [38;5;134m#64[0m]
   81098:	a9052fea 	[38;5;142mstp[0m	[38;5;27mx10[0m, [38;5;27mx11[0m, [[38;5;27msp[0m, [38;5;134m#80[0m]
   8109c:	a90637ec 	[38;5;142mstp[0m	[38;5;27mx12[0m, [38;5;27mx13[0m, [[38;5;27msp[0m, [38;5;134m#96[0m]
   810a0:	a9073fee 	[38;5;142mstp[0m	[38;5;27mx14[0m, [38;5;27mx15[0m, [[38;5;27msp[0m, [38;5;134m#112[0m]
   810a4:	a90847f0 	[38;5;142mstp[0m	[38;5;27mx16[0m, [38;5;27mx17[0m, [[38;5;27msp[0m, [38;5;134m#128[0m]
   810a8:	a9094ff2 	[38;5;142mstp[0m	[38;5;27mx18[0m, [38;5;27mx19[0m, [[38;5;27msp[0m, [38;5;134m#144[0m]
   810ac:	a90a57f4 	[38;5;142mstp[0m	[38;5;27mx20[0m, [38;5;27mx21[0m, [[38;5;27msp[0m, [38;5;134m#160[0m]
   810b0:	a90b5ff6 	[38;5;142mstp[0m	[38;5;27mx22[0m, [38;5;27mx23[0m, [[38;5;27msp[0m, [38;5;134m#176[0m]
   810b4:	a90c67f8 	[38;5;142mstp[0m	[38;5;27mx24[0m, [38;5;27mx25[0m, [[38;5;27msp[0m, [38;5;134m#192[0m]
   810b8:	a90d6ffa 	[38;5;142mstp[0m	[38;5;27mx26[0m, [38;5;27mx27[0m, [[38;5;27msp[0m, [38;5;134m#208[0m]
   810bc:	a90e77fc 	[38;5;142mstp[0m	[38;5;27mx28[0m, [38;5;27mx29[0m, [[38;5;27msp[0m, [38;5;134m#224[0m]
   810c0:	f9007bfe 	[38;5;142mstr[0m	[38;5;27mx30[0m, [[38;5;27msp[0m, [38;5;134m#240[0m]
   810c4:	d2800060 	[38;5;142mmov[0m	[38;5;27mx0[0m, [38;5;134m#0x3                   [0m[38;5;250m	// #3[0m
   810c8:	d5385201 	[38;5;142mmrs[0m	[38;5;27mx1[0m, [38;5;27mesr_el1[0m
   810cc:	d5384022 	[38;5;142mmrs[0m	[38;5;27mx2[0m, [38;5;27melr_el1[0m
   810d0:	1400010c 	[38;5;142mb[0m	[38;5;134m81500[0m <[38;5;40merr_hang[0m>

00000000000810d4 <sync_invalid_el1h>:
   810d4:	d10403ff 	[38;5;142msub[0m	[38;5;27msp[0m, [38;5;27msp[0m, [38;5;134m#0x100[0m
   810d8:	a90007e0 	[38;5;142mstp[0m	[38;5;27mx0[0m, [38;5;27mx1[0m, [[38;5;27msp[0m]
   810dc:	a9010fe2 	[38;5;142mstp[0m	[38;5;27mx2[0m, [38;5;27mx3[0m, [[38;5;27msp[0m, [38;5;134m#16[0m]
   810e0:	a90217e4 	[38;5;142mstp[0m	[38;5;27mx4[0m, [38;5;27mx5[0m, [[38;5;27msp[0m, [38;5;134m#32[0m]
   810e4:	a9031fe6 	[38;5;142mstp[0m	[38;5;27mx6[0m, [38;5;27mx7[0m, [[38;5;27msp[0m, [38;5;134m#48[0m]
   810e8:	a90427e8 	[38;5;142mstp[0m	[38;5;27mx8[0m, [38;5;27mx9[0m, [[38;5;27msp[0m, [38;5;134m#64[0m]
   810ec:	a9052fea 	[38;5;142mstp[0m	[38;5;27mx10[0m, [38;5;27mx11[0m, [[38;5;27msp[0m, [38;5;134m#80[0m]
   810f0:	a90637ec 	[38;5;142mstp[0m	[38;5;27mx12[0m, [38;5;27mx13[0m, [[38;5;27msp[0m, [38;5;134m#96[0m]
   810f4:	a9073fee 	[38;5;142mstp[0m	[38;5;27mx14[0m, [38;5;27mx15[0m, [[38;5;27msp[0m, [38;5;134m#112[0m]
   810f8:	a90847f0 	[38;5;142mstp[0m	[38;5;27mx16[0m, [38;5;27mx17[0m, [[38;5;27msp[0m, [38;5;134m#128[0m]
   810fc:	a9094ff2 	[38;5;142mstp[0m	[38;5;27mx18[0m, [38;5;27mx19[0m, [[38;5;27msp[0m, [38;5;134m#144[0m]
   81100:	a90a57f4 	[38;5;142mstp[0m	[38;5;27mx20[0m, [38;5;27mx21[0m, [[38;5;27msp[0m, [38;5;134m#160[0m]
   81104:	a90b5ff6 	[38;5;142mstp[0m	[38;5;27mx22[0m, [38;5;27mx23[0m, [[38;5;27msp[0m, [38;5;134m#176[0m]
   81108:	a90c67f8 	[38;5;142mstp[0m	[38;5;27mx24[0m, [38;5;27mx25[0m, [[38;5;27msp[0m, [38;5;134m#192[0m]
   8110c:	a90d6ffa 	[38;5;142mstp[0m	[38;5;27mx26[0m, [38;5;27mx27[0m, [[38;5;27msp[0m, [38;5;134m#208[0m]
   81110:	a90e77fc 	[38;5;142mstp[0m	[38;5;27mx28[0m, [38;5;27mx29[0m, [[38;5;27msp[0m, [38;5;134m#224[0m]
   81114:	f9007bfe 	[38;5;142mstr[0m	[38;5;27mx30[0m, [[38;5;27msp[0m, [38;5;134m#240[0m]
   81118:	d2800080 	[38;5;142mmov[0m	[38;5;27mx0[0m, [38;5;134m#0x4                   [0m[38;5;250m	// #4[0m
   8111c:	d5385201 	[38;5;142mmrs[0m	[38;5;27mx1[0m, [38;5;27mesr_el1[0m
   81120:	d5384022 	[38;5;142mmrs[0m	[38;5;27mx2[0m, [38;5;27melr_el1[0m
   81124:	140000f7 	[38;5;142mb[0m	[38;5;134m81500[0m <[38;5;40merr_hang[0m>

0000000000081128 <fiq_invalid_el1h>:
   81128:	d10403ff 	[38;5;142msub[0m	[38;5;27msp[0m, [38;5;27msp[0m, [38;5;134m#0x100[0m
   8112c:	a90007e0 	[38;5;142mstp[0m	[38;5;27mx0[0m, [38;5;27mx1[0m, [[38;5;27msp[0m]
   81130:	a9010fe2 	[38;5;142mstp[0m	[38;5;27mx2[0m, [38;5;27mx3[0m, [[38;5;27msp[0m, [38;5;134m#16[0m]
   81134:	a90217e4 	[38;5;142mstp[0m	[38;5;27mx4[0m, [38;5;27mx5[0m, [[38;5;27msp[0m, [38;5;134m#32[0m]
   81138:	a9031fe6 	[38;5;142mstp[0m	[38;5;27mx6[0m, [38;5;27mx7[0m, [[38;5;27msp[0m, [38;5;134m#48[0m]
   8113c:	a90427e8 	[38;5;142mstp[0m	[38;5;27mx8[0m, [38;5;27mx9[0m, [[38;5;27msp[0m, [38;5;134m#64[0m]
   81140:	a9052fea 	[38;5;142mstp[0m	[38;5;27mx10[0m, [38;5;27mx11[0m, [[38;5;27msp[0m, [38;5;134m#80[0m]
   81144:	a90637ec 	[38;5;142mstp[0m	[38;5;27mx12[0m, [38;5;27mx13[0m, [[38;5;27msp[0m, [38;5;134m#96[0m]
   81148:	a9073fee 	[38;5;142mstp[0m	[38;5;27mx14[0m, [38;5;27mx15[0m, [[38;5;27msp[0m, [38;5;134m#112[0m]
   8114c:	a90847f0 	[38;5;142mstp[0m	[38;5;27mx16[0m, [38;5;27mx17[0m, [[38;5;27msp[0m, [38;5;134m#128[0m]
   81150:	a9094ff2 	[38;5;142mstp[0m	[38;5;27mx18[0m, [38;5;27mx19[0m, [[38;5;27msp[0m, [38;5;134m#144[0m]
   81154:	a90a57f4 	[38;5;142mstp[0m	[38;5;27mx20[0m, [38;5;27mx21[0m, [[38;5;27msp[0m, [38;5;134m#160[0m]
   81158:	a90b5ff6 	[38;5;142mstp[0m	[38;5;27mx22[0m, [38;5;27mx23[0m, [[38;5;27msp[0m, [38;5;134m#176[0m]
   8115c:	a90c67f8 	[38;5;142mstp[0m	[38;5;27mx24[0m, [38;5;27mx25[0m, [[38;5;27msp[0m, [38;5;134m#192[0m]
   81160:	a90d6ffa 	[38;5;142mstp[0m	[38;5;27mx26[0m, [38;5;27mx27[0m, [[38;5;27msp[0m, [38;5;134m#208[0m]
   81164:	a90e77fc 	[38;5;142mstp[0m	[38;5;27mx28[0m, [38;5;27mx29[0m, [[38;5;27msp[0m, [38;5;134m#224[0m]
   81168:	f9007bfe 	[38;5;142mstr[0m	[38;5;27mx30[0m, [[38;5;27msp[0m, [38;5;134m#240[0m]
   8116c:	d28000c0 	[38;5;142mmov[0m	[38;5;27mx0[0m, [38;5;134m#0x6                   [0m[38;5;250m	// #6[0m
   81170:	d5385201 	[38;5;142mmrs[0m	[38;5;27mx1[0m, [38;5;27mesr_el1[0m
   81174:	d5384022 	[38;5;142mmrs[0m	[38;5;27mx2[0m, [38;5;27melr_el1[0m
   81178:	140000e2 	[38;5;142mb[0m	[38;5;134m81500[0m <[38;5;40merr_hang[0m>

000000000008117c <error_invalid_el1h>:
   8117c:	d10403ff 	[38;5;142msub[0m	[38;5;27msp[0m, [38;5;27msp[0m, [38;5;134m#0x100[0m
   81180:	a90007e0 	[38;5;142mstp[0m	[38;5;27mx0[0m, [38;5;27mx1[0m, [[38;5;27msp[0m]
   81184:	a9010fe2 	[38;5;142mstp[0m	[38;5;27mx2[0m, [38;5;27mx3[0m, [[38;5;27msp[0m, [38;5;134m#16[0m]
   81188:	a90217e4 	[38;5;142mstp[0m	[38;5;27mx4[0m, [38;5;27mx5[0m, [[38;5;27msp[0m, [38;5;134m#32[0m]
   8118c:	a9031fe6 	[38;5;142mstp[0m	[38;5;27mx6[0m, [38;5;27mx7[0m, [[38;5;27msp[0m, [38;5;134m#48[0m]
   81190:	a90427e8 	[38;5;142mstp[0m	[38;5;27mx8[0m, [38;5;27mx9[0m, [[38;5;27msp[0m, [38;5;134m#64[0m]
   81194:	a9052fea 	[38;5;142mstp[0m	[38;5;27mx10[0m, [38;5;27mx11[0m, [[38;5;27msp[0m, [38;5;134m#80[0m]
   81198:	a90637ec 	[38;5;142mstp[0m	[38;5;27mx12[0m, [38;5;27mx13[0m, [[38;5;27msp[0m, [38;5;134m#96[0m]
   8119c:	a9073fee 	[38;5;142mstp[0m	[38;5;27mx14[0m, [38;5;27mx15[0m, [[38;5;27msp[0m, [38;5;134m#112[0m]
   811a0:	a90847f0 	[38;5;142mstp[0m	[38;5;27mx16[0m, [38;5;27mx17[0m, [[38;5;27msp[0m, [38;5;134m#128[0m]
   811a4:	a9094ff2 	[38;5;142mstp[0m	[38;5;27mx18[0m, [38;5;27mx19[0m, [[38;5;27msp[0m, [38;5;134m#144[0m]
   811a8:	a90a57f4 	[38;5;142mstp[0m	[38;5;27mx20[0m, [38;5;27mx21[0m, [[38;5;27msp[0m, [38;5;134m#160[0m]
   811ac:	a90b5ff6 	[38;5;142mstp[0m	[38;5;27mx22[0m, [38;5;27mx23[0m, [[38;5;27msp[0m, [38;5;134m#176[0m]
   811b0:	a90c67f8 	[38;5;142mstp[0m	[38;5;27mx24[0m, [38;5;27mx25[0m, [[38;5;27msp[0m, [38;5;134m#192[0m]
   811b4:	a90d6ffa 	[38;5;142mstp[0m	[38;5;27mx26[0m, [38;5;27mx27[0m, [[38;5;27msp[0m, [38;5;134m#208[0m]
   811b8:	a90e77fc 	[38;5;142mstp[0m	[38;5;27mx28[0m, [38;5;27mx29[0m, [[38;5;27msp[0m, [38;5;134m#224[0m]
   811bc:	f9007bfe 	[38;5;142mstr[0m	[38;5;27mx30[0m, [[38;5;27msp[0m, [38;5;134m#240[0m]
   811c0:	d28000e0 	[38;5;142mmov[0m	[38;5;27mx0[0m, [38;5;134m#0x7                   [0m[38;5;250m	// #7[0m
   811c4:	d5385201 	[38;5;142mmrs[0m	[38;5;27mx1[0m, [38;5;27mesr_el1[0m
   811c8:	d5384022 	[38;5;142mmrs[0m	[38;5;27mx2[0m, [38;5;27melr_el1[0m
   811cc:	140000cd 	[38;5;142mb[0m	[38;5;134m81500[0m <[38;5;40merr_hang[0m>

00000000000811d0 <sync_invalid_el0_64>:
   811d0:	d10403ff 	[38;5;142msub[0m	[38;5;27msp[0m, [38;5;27msp[0m, [38;5;134m#0x100[0m
   811d4:	a90007e0 	[38;5;142mstp[0m	[38;5;27mx0[0m, [38;5;27mx1[0m, [[38;5;27msp[0m]
   811d8:	a9010fe2 	[38;5;142mstp[0m	[38;5;27mx2[0m, [38;5;27mx3[0m, [[38;5;27msp[0m, [38;5;134m#16[0m]
   811dc:	a90217e4 	[38;5;142mstp[0m	[38;5;27mx4[0m, [38;5;27mx5[0m, [[38;5;27msp[0m, [38;5;134m#32[0m]
   811e0:	a9031fe6 	[38;5;142mstp[0m	[38;5;27mx6[0m, [38;5;27mx7[0m, [[38;5;27msp[0m, [38;5;134m#48[0m]
   811e4:	a90427e8 	[38;5;142mstp[0m	[38;5;27mx8[0m, [38;5;27mx9[0m, [[38;5;27msp[0m, [38;5;134m#64[0m]
   811e8:	a9052fea 	[38;5;142mstp[0m	[38;5;27mx10[0m, [38;5;27mx11[0m, [[38;5;27msp[0m, [38;5;134m#80[0m]
   811ec:	a90637ec 	[38;5;142mstp[0m	[38;5;27mx12[0m, [38;5;27mx13[0m, [[38;5;27msp[0m, [38;5;134m#96[0m]
   811f0:	a9073fee 	[38;5;142mstp[0m	[38;5;27mx14[0m, [38;5;27mx15[0m, [[38;5;27msp[0m, [38;5;134m#112[0m]
   811f4:	a90847f0 	[38;5;142mstp[0m	[38;5;27mx16[0m, [38;5;27mx17[0m, [[38;5;27msp[0m, [38;5;134m#128[0m]
   811f8:	a9094ff2 	[38;5;142mstp[0m	[38;5;27mx18[0m, [38;5;27mx19[0m, [[38;5;27msp[0m, [38;5;134m#144[0m]
   811fc:	a90a57f4 	[38;5;142mstp[0m	[38;5;27mx20[0m, [38;5;27mx21[0m, [[38;5;27msp[0m, [38;5;134m#160[0m]
   81200:	a90b5ff6 	[38;5;142mstp[0m	[38;5;27mx22[0m, [38;5;27mx23[0m, [[38;5;27msp[0m, [38;5;134m#176[0m]
   81204:	a90c67f8 	[38;5;142mstp[0m	[38;5;27mx24[0m, [38;5;27mx25[0m, [[38;5;27msp[0m, [38;5;134m#192[0m]
   81208:	a90d6ffa 	[38;5;142mstp[0m	[38;5;27mx26[0m, [38;5;27mx27[0m, [[38;5;27msp[0m, [38;5;134m#208[0m]
   8120c:	a90e77fc 	[38;5;142mstp[0m	[38;5;27mx28[0m, [38;5;27mx29[0m, [[38;5;27msp[0m, [38;5;134m#224[0m]
   81210:	f9007bfe 	[38;5;142mstr[0m	[38;5;27mx30[0m, [[38;5;27msp[0m, [38;5;134m#240[0m]
   81214:	d2800100 	[38;5;142mmov[0m	[38;5;27mx0[0m, [38;5;134m#0x8                   [0m[38;5;250m	// #8[0m
   81218:	d5385201 	[38;5;142mmrs[0m	[38;5;27mx1[0m, [38;5;27mesr_el1[0m
   8121c:	d5384022 	[38;5;142mmrs[0m	[38;5;27mx2[0m, [38;5;27melr_el1[0m
   81220:	140000b8 	[38;5;142mb[0m	[38;5;134m81500[0m <[38;5;40merr_hang[0m>

0000000000081224 <irq_invalid_el0_64>:
   81224:	d10403ff 	[38;5;142msub[0m	[38;5;27msp[0m, [38;5;27msp[0m, [38;5;134m#0x100[0m
   81228:	a90007e0 	[38;5;142mstp[0m	[38;5;27mx0[0m, [38;5;27mx1[0m, [[38;5;27msp[0m]
   8122c:	a9010fe2 	[38;5;142mstp[0m	[38;5;27mx2[0m, [38;5;27mx3[0m, [[38;5;27msp[0m, [38;5;134m#16[0m]
   81230:	a90217e4 	[38;5;142mstp[0m	[38;5;27mx4[0m, [38;5;27mx5[0m, [[38;5;27msp[0m, [38;5;134m#32[0m]
   81234:	a9031fe6 	[38;5;142mstp[0m	[38;5;27mx6[0m, [38;5;27mx7[0m, [[38;5;27msp[0m, [38;5;134m#48[0m]
   81238:	a90427e8 	[38;5;142mstp[0m	[38;5;27mx8[0m, [38;5;27mx9[0m, [[38;5;27msp[0m, [38;5;134m#64[0m]
   8123c:	a9052fea 	[38;5;142mstp[0m	[38;5;27mx10[0m, [38;5;27mx11[0m, [[38;5;27msp[0m, [38;5;134m#80[0m]
   81240:	a90637ec 	[38;5;142mstp[0m	[38;5;27mx12[0m, [38;5;27mx13[0m, [[38;5;27msp[0m, [38;5;134m#96[0m]
   81244:	a9073fee 	[38;5;142mstp[0m	[38;5;27mx14[0m, [38;5;27mx15[0m, [[38;5;27msp[0m, [38;5;134m#112[0m]
   81248:	a90847f0 	[38;5;142mstp[0m	[38;5;27mx16[0m, [38;5;27mx17[0m, [[38;5;27msp[0m, [38;5;134m#128[0m]
   8124c:	a9094ff2 	[38;5;142mstp[0m	[38;5;27mx18[0m, [38;5;27mx19[0m, [[38;5;27msp[0m, [38;5;134m#144[0m]
   81250:	a90a57f4 	[38;5;142mstp[0m	[38;5;27mx20[0m, [38;5;27mx21[0m, [[38;5;27msp[0m, [38;5;134m#160[0m]
   81254:	a90b5ff6 	[38;5;142mstp[0m	[38;5;27mx22[0m, [38;5;27mx23[0m, [[38;5;27msp[0m, [38;5;134m#176[0m]
   81258:	a90c67f8 	[38;5;142mstp[0m	[38;5;27mx24[0m, [38;5;27mx25[0m, [[38;5;27msp[0m, [38;5;134m#192[0m]
   8125c:	a90d6ffa 	[38;5;142mstp[0m	[38;5;27mx26[0m, [38;5;27mx27[0m, [[38;5;27msp[0m, [38;5;134m#208[0m]
   81260:	a90e77fc 	[38;5;142mstp[0m	[38;5;27mx28[0m, [38;5;27mx29[0m, [[38;5;27msp[0m, [38;5;134m#224[0m]
   81264:	f9007bfe 	[38;5;142mstr[0m	[38;5;27mx30[0m, [[38;5;27msp[0m, [38;5;134m#240[0m]
   81268:	d2800120 	[38;5;142mmov[0m	[38;5;27mx0[0m, [38;5;134m#0x9                   [0m[38;5;250m	// #9[0m
   8126c:	d5385201 	[38;5;142mmrs[0m	[38;5;27mx1[0m, [38;5;27mesr_el1[0m
   81270:	d5384022 	[38;5;142mmrs[0m	[38;5;27mx2[0m, [38;5;27melr_el1[0m
   81274:	140000a3 	[38;5;142mb[0m	[38;5;134m81500[0m <[38;5;40merr_hang[0m>

0000000000081278 <fiq_invalid_el0_64>:
   81278:	d10403ff 	[38;5;142msub[0m	[38;5;27msp[0m, [38;5;27msp[0m, [38;5;134m#0x100[0m
   8127c:	a90007e0 	[38;5;142mstp[0m	[38;5;27mx0[0m, [38;5;27mx1[0m, [[38;5;27msp[0m]
   81280:	a9010fe2 	[38;5;142mstp[0m	[38;5;27mx2[0m, [38;5;27mx3[0m, [[38;5;27msp[0m, [38;5;134m#16[0m]
   81284:	a90217e4 	[38;5;142mstp[0m	[38;5;27mx4[0m, [38;5;27mx5[0m, [[38;5;27msp[0m, [38;5;134m#32[0m]
   81288:	a9031fe6 	[38;5;142mstp[0m	[38;5;27mx6[0m, [38;5;27mx7[0m, [[38;5;27msp[0m, [38;5;134m#48[0m]
   8128c:	a90427e8 	[38;5;142mstp[0m	[38;5;27mx8[0m, [38;5;27mx9[0m, [[38;5;27msp[0m, [38;5;134m#64[0m]
   81290:	a9052fea 	[38;5;142mstp[0m	[38;5;27mx10[0m, [38;5;27mx11[0m, [[38;5;27msp[0m, [38;5;134m#80[0m]
   81294:	a90637ec 	[38;5;142mstp[0m	[38;5;27mx12[0m, [38;5;27mx13[0m, [[38;5;27msp[0m, [38;5;134m#96[0m]
   81298:	a9073fee 	[38;5;142mstp[0m	[38;5;27mx14[0m, [38;5;27mx15[0m, [[38;5;27msp[0m, [38;5;134m#112[0m]
   8129c:	a90847f0 	[38;5;142mstp[0m	[38;5;27mx16[0m, [38;5;27mx17[0m, [[38;5;27msp[0m, [38;5;134m#128[0m]
   812a0:	a9094ff2 	[38;5;142mstp[0m	[38;5;27mx18[0m, [38;5;27mx19[0m, [[38;5;27msp[0m, [38;5;134m#144[0m]
   812a4:	a90a57f4 	[38;5;142mstp[0m	[38;5;27mx20[0m, [38;5;27mx21[0m, [[38;5;27msp[0m, [38;5;134m#160[0m]
   812a8:	a90b5ff6 	[38;5;142mstp[0m	[38;5;27mx22[0m, [38;5;27mx23[0m, [[38;5;27msp[0m, [38;5;134m#176[0m]
   812ac:	a90c67f8 	[38;5;142mstp[0m	[38;5;27mx24[0m, [38;5;27mx25[0m, [[38;5;27msp[0m, [38;5;134m#192[0m]
   812b0:	a90d6ffa 	[38;5;142mstp[0m	[38;5;27mx26[0m, [38;5;27mx27[0m, [[38;5;27msp[0m, [38;5;134m#208[0m]
   812b4:	a90e77fc 	[38;5;142mstp[0m	[38;5;27mx28[0m, [38;5;27mx29[0m, [[38;5;27msp[0m, [38;5;134m#224[0m]
   812b8:	f9007bfe 	[38;5;142mstr[0m	[38;5;27mx30[0m, [[38;5;27msp[0m, [38;5;134m#240[0m]
   812bc:	d2800140 	[38;5;142mmov[0m	[38;5;27mx0[0m, [38;5;134m#0xa                   [0m[38;5;250m	// #10[0m
   812c0:	d5385201 	[38;5;142mmrs[0m	[38;5;27mx1[0m, [38;5;27mesr_el1[0m
   812c4:	d5384022 	[38;5;142mmrs[0m	[38;5;27mx2[0m, [38;5;27melr_el1[0m
   812c8:	1400008e 	[38;5;142mb[0m	[38;5;134m81500[0m <[38;5;40merr_hang[0m>

00000000000812cc <error_invalid_el0_64>:
   812cc:	d10403ff 	[38;5;142msub[0m	[38;5;27msp[0m, [38;5;27msp[0m, [38;5;134m#0x100[0m
   812d0:	a90007e0 	[38;5;142mstp[0m	[38;5;27mx0[0m, [38;5;27mx1[0m, [[38;5;27msp[0m]
   812d4:	a9010fe2 	[38;5;142mstp[0m	[38;5;27mx2[0m, [38;5;27mx3[0m, [[38;5;27msp[0m, [38;5;134m#16[0m]
   812d8:	a90217e4 	[38;5;142mstp[0m	[38;5;27mx4[0m, [38;5;27mx5[0m, [[38;5;27msp[0m, [38;5;134m#32[0m]
   812dc:	a9031fe6 	[38;5;142mstp[0m	[38;5;27mx6[0m, [38;5;27mx7[0m, [[38;5;27msp[0m, [38;5;134m#48[0m]
   812e0:	a90427e8 	[38;5;142mstp[0m	[38;5;27mx8[0m, [38;5;27mx9[0m, [[38;5;27msp[0m, [38;5;134m#64[0m]
   812e4:	a9052fea 	[38;5;142mstp[0m	[38;5;27mx10[0m, [38;5;27mx11[0m, [[38;5;27msp[0m, [38;5;134m#80[0m]
   812e8:	a90637ec 	[38;5;142mstp[0m	[38;5;27mx12[0m, [38;5;27mx13[0m, [[38;5;27msp[0m, [38;5;134m#96[0m]
   812ec:	a9073fee 	[38;5;142mstp[0m	[38;5;27mx14[0m, [38;5;27mx15[0m, [[38;5;27msp[0m, [38;5;134m#112[0m]
   812f0:	a90847f0 	[38;5;142mstp[0m	[38;5;27mx16[0m, [38;5;27mx17[0m, [[38;5;27msp[0m, [38;5;134m#128[0m]
   812f4:	a9094ff2 	[38;5;142mstp[0m	[38;5;27mx18[0m, [38;5;27mx19[0m, [[38;5;27msp[0m, [38;5;134m#144[0m]
   812f8:	a90a57f4 	[38;5;142mstp[0m	[38;5;27mx20[0m, [38;5;27mx21[0m, [[38;5;27msp[0m, [38;5;134m#160[0m]
   812fc:	a90b5ff6 	[38;5;142mstp[0m	[38;5;27mx22[0m, [38;5;27mx23[0m, [[38;5;27msp[0m, [38;5;134m#176[0m]
   81300:	a90c67f8 	[38;5;142mstp[0m	[38;5;27mx24[0m, [38;5;27mx25[0m, [[38;5;27msp[0m, [38;5;134m#192[0m]
   81304:	a90d6ffa 	[38;5;142mstp[0m	[38;5;27mx26[0m, [38;5;27mx27[0m, [[38;5;27msp[0m, [38;5;134m#208[0m]
   81308:	a90e77fc 	[38;5;142mstp[0m	[38;5;27mx28[0m, [38;5;27mx29[0m, [[38;5;27msp[0m, [38;5;134m#224[0m]
   8130c:	f9007bfe 	[38;5;142mstr[0m	[38;5;27mx30[0m, [[38;5;27msp[0m, [38;5;134m#240[0m]
   81310:	d2800160 	[38;5;142mmov[0m	[38;5;27mx0[0m, [38;5;134m#0xb                   [0m[38;5;250m	// #11[0m
   81314:	d5385201 	[38;5;142mmrs[0m	[38;5;27mx1[0m, [38;5;27mesr_el1[0m
   81318:	d5384022 	[38;5;142mmrs[0m	[38;5;27mx2[0m, [38;5;27melr_el1[0m
   8131c:	14000079 	[38;5;142mb[0m	[38;5;134m81500[0m <[38;5;40merr_hang[0m>

0000000000081320 <sync_invalid_el0_32>:
   81320:	d10403ff 	[38;5;142msub[0m	[38;5;27msp[0m, [38;5;27msp[0m, [38;5;134m#0x100[0m
   81324:	a90007e0 	[38;5;142mstp[0m	[38;5;27mx0[0m, [38;5;27mx1[0m, [[38;5;27msp[0m]
   81328:	a9010fe2 	[38;5;142mstp[0m	[38;5;27mx2[0m, [38;5;27mx3[0m, [[38;5;27msp[0m, [38;5;134m#16[0m]
   8132c:	a90217e4 	[38;5;142mstp[0m	[38;5;27mx4[0m, [38;5;27mx5[0m, [[38;5;27msp[0m, [38;5;134m#32[0m]
   81330:	a9031fe6 	[38;5;142mstp[0m	[38;5;27mx6[0m, [38;5;27mx7[0m, [[38;5;27msp[0m, [38;5;134m#48[0m]
   81334:	a90427e8 	[38;5;142mstp[0m	[38;5;27mx8[0m, [38;5;27mx9[0m, [[38;5;27msp[0m, [38;5;134m#64[0m]
   81338:	a9052fea 	[38;5;142mstp[0m	[38;5;27mx10[0m, [38;5;27mx11[0m, [[38;5;27msp[0m, [38;5;134m#80[0m]
   8133c:	a90637ec 	[38;5;142mstp[0m	[38;5;27mx12[0m, [38;5;27mx13[0m, [[38;5;27msp[0m, [38;5;134m#96[0m]
   81340:	a9073fee 	[38;5;142mstp[0m	[38;5;27mx14[0m, [38;5;27mx15[0m, [[38;5;27msp[0m, [38;5;134m#112[0m]
   81344:	a90847f0 	[38;5;142mstp[0m	[38;5;27mx16[0m, [38;5;27mx17[0m, [[38;5;27msp[0m, [38;5;134m#128[0m]
   81348:	a9094ff2 	[38;5;142mstp[0m	[38;5;27mx18[0m, [38;5;27mx19[0m, [[38;5;27msp[0m, [38;5;134m#144[0m]
   8134c:	a90a57f4 	[38;5;142mstp[0m	[38;5;27mx20[0m, [38;5;27mx21[0m, [[38;5;27msp[0m, [38;5;134m#160[0m]
   81350:	a90b5ff6 	[38;5;142mstp[0m	[38;5;27mx22[0m, [38;5;27mx23[0m, [[38;5;27msp[0m, [38;5;134m#176[0m]
   81354:	a90c67f8 	[38;5;142mstp[0m	[38;5;27mx24[0m, [38;5;27mx25[0m, [[38;5;27msp[0m, [38;5;134m#192[0m]
   81358:	a90d6ffa 	[38;5;142mstp[0m	[38;5;27mx26[0m, [38;5;27mx27[0m, [[38;5;27msp[0m, [38;5;134m#208[0m]
   8135c:	a90e77fc 	[38;5;142mstp[0m	[38;5;27mx28[0m, [38;5;27mx29[0m, [[38;5;27msp[0m, [38;5;134m#224[0m]
   81360:	f9007bfe 	[38;5;142mstr[0m	[38;5;27mx30[0m, [[38;5;27msp[0m, [38;5;134m#240[0m]
   81364:	d2800180 	[38;5;142mmov[0m	[38;5;27mx0[0m, [38;5;134m#0xc                   [0m[38;5;250m	// #12[0m
   81368:	d5385201 	[38;5;142mmrs[0m	[38;5;27mx1[0m, [38;5;27mesr_el1[0m
   8136c:	d5384022 	[38;5;142mmrs[0m	[38;5;27mx2[0m, [38;5;27melr_el1[0m
   81370:	14000064 	[38;5;142mb[0m	[38;5;134m81500[0m <[38;5;40merr_hang[0m>

0000000000081374 <irq_invalid_el0_32>:
   81374:	d10403ff 	[38;5;142msub[0m	[38;5;27msp[0m, [38;5;27msp[0m, [38;5;134m#0x100[0m
   81378:	a90007e0 	[38;5;142mstp[0m	[38;5;27mx0[0m, [38;5;27mx1[0m, [[38;5;27msp[0m]
   8137c:	a9010fe2 	[38;5;142mstp[0m	[38;5;27mx2[0m, [38;5;27mx3[0m, [[38;5;27msp[0m, [38;5;134m#16[0m]
   81380:	a90217e4 	[38;5;142mstp[0m	[38;5;27mx4[0m, [38;5;27mx5[0m, [[38;5;27msp[0m, [38;5;134m#32[0m]
   81384:	a9031fe6 	[38;5;142mstp[0m	[38;5;27mx6[0m, [38;5;27mx7[0m, [[38;5;27msp[0m, [38;5;134m#48[0m]
   81388:	a90427e8 	[38;5;142mstp[0m	[38;5;27mx8[0m, [38;5;27mx9[0m, [[38;5;27msp[0m, [38;5;134m#64[0m]
   8138c:	a9052fea 	[38;5;142mstp[0m	[38;5;27mx10[0m, [38;5;27mx11[0m, [[38;5;27msp[0m, [38;5;134m#80[0m]
   81390:	a90637ec 	[38;5;142mstp[0m	[38;5;27mx12[0m, [38;5;27mx13[0m, [[38;5;27msp[0m, [38;5;134m#96[0m]
   81394:	a9073fee 	[38;5;142mstp[0m	[38;5;27mx14[0m, [38;5;27mx15[0m, [[38;5;27msp[0m, [38;5;134m#112[0m]
   81398:	a90847f0 	[38;5;142mstp[0m	[38;5;27mx16[0m, [38;5;27mx17[0m, [[38;5;27msp[0m, [38;5;134m#128[0m]
   8139c:	a9094ff2 	[38;5;142mstp[0m	[38;5;27mx18[0m, [38;5;27mx19[0m, [[38;5;27msp[0m, [38;5;134m#144[0m]
   813a0:	a90a57f4 	[38;5;142mstp[0m	[38;5;27mx20[0m, [38;5;27mx21[0m, [[38;5;27msp[0m, [38;5;134m#160[0m]
   813a4:	a90b5ff6 	[38;5;142mstp[0m	[38;5;27mx22[0m, [38;5;27mx23[0m, [[38;5;27msp[0m, [38;5;134m#176[0m]
   813a8:	a90c67f8 	[38;5;142mstp[0m	[38;5;27mx24[0m, [38;5;27mx25[0m, [[38;5;27msp[0m, [38;5;134m#192[0m]
   813ac:	a90d6ffa 	[38;5;142mstp[0m	[38;5;27mx26[0m, [38;5;27mx27[0m, [[38;5;27msp[0m, [38;5;134m#208[0m]
   813b0:	a90e77fc 	[38;5;142mstp[0m	[38;5;27mx28[0m, [38;5;27mx29[0m, [[38;5;27msp[0m, [38;5;134m#224[0m]
   813b4:	f9007bfe 	[38;5;142mstr[0m	[38;5;27mx30[0m, [[38;5;27msp[0m, [38;5;134m#240[0m]
   813b8:	d28001a0 	[38;5;142mmov[0m	[38;5;27mx0[0m, [38;5;134m#0xd                   [0m[38;5;250m	// #13[0m
   813bc:	d5385201 	[38;5;142mmrs[0m	[38;5;27mx1[0m, [38;5;27mesr_el1[0m
   813c0:	d5384022 	[38;5;142mmrs[0m	[38;5;27mx2[0m, [38;5;27melr_el1[0m
   813c4:	1400004f 	[38;5;142mb[0m	[38;5;134m81500[0m <[38;5;40merr_hang[0m>

00000000000813c8 <fiq_invalid_el0_32>:
   813c8:	d10403ff 	[38;5;142msub[0m	[38;5;27msp[0m, [38;5;27msp[0m, [38;5;134m#0x100[0m
   813cc:	a90007e0 	[38;5;142mstp[0m	[38;5;27mx0[0m, [38;5;27mx1[0m, [[38;5;27msp[0m]
   813d0:	a9010fe2 	[38;5;142mstp[0m	[38;5;27mx2[0m, [38;5;27mx3[0m, [[38;5;27msp[0m, [38;5;134m#16[0m]
   813d4:	a90217e4 	[38;5;142mstp[0m	[38;5;27mx4[0m, [38;5;27mx5[0m, [[38;5;27msp[0m, [38;5;134m#32[0m]
   813d8:	a9031fe6 	[38;5;142mstp[0m	[38;5;27mx6[0m, [38;5;27mx7[0m, [[38;5;27msp[0m, [38;5;134m#48[0m]
   813dc:	a90427e8 	[38;5;142mstp[0m	[38;5;27mx8[0m, [38;5;27mx9[0m, [[38;5;27msp[0m, [38;5;134m#64[0m]
   813e0:	a9052fea 	[38;5;142mstp[0m	[38;5;27mx10[0m, [38;5;27mx11[0m, [[38;5;27msp[0m, [38;5;134m#80[0m]
   813e4:	a90637ec 	[38;5;142mstp[0m	[38;5;27mx12[0m, [38;5;27mx13[0m, [[38;5;27msp[0m, [38;5;134m#96[0m]
   813e8:	a9073fee 	[38;5;142mstp[0m	[38;5;27mx14[0m, [38;5;27mx15[0m, [[38;5;27msp[0m, [38;5;134m#112[0m]
   813ec:	a90847f0 	[38;5;142mstp[0m	[38;5;27mx16[0m, [38;5;27mx17[0m, [[38;5;27msp[0m, [38;5;134m#128[0m]
   813f0:	a9094ff2 	[38;5;142mstp[0m	[38;5;27mx18[0m, [38;5;27mx19[0m, [[38;5;27msp[0m, [38;5;134m#144[0m]
   813f4:	a90a57f4 	[38;5;142mstp[0m	[38;5;27mx20[0m, [38;5;27mx21[0m, [[38;5;27msp[0m, [38;5;134m#160[0m]
   813f8:	a90b5ff6 	[38;5;142mstp[0m	[38;5;27mx22[0m, [38;5;27mx23[0m, [[38;5;27msp[0m, [38;5;134m#176[0m]
   813fc:	a90c67f8 	[38;5;142mstp[0m	[38;5;27mx24[0m, [38;5;27mx25[0m, [[38;5;27msp[0m, [38;5;134m#192[0m]
   81400:	a90d6ffa 	[38;5;142mstp[0m	[38;5;27mx26[0m, [38;5;27mx27[0m, [[38;5;27msp[0m, [38;5;134m#208[0m]
   81404:	a90e77fc 	[38;5;142mstp[0m	[38;5;27mx28[0m, [38;5;27mx29[0m, [[38;5;27msp[0m, [38;5;134m#224[0m]
   81408:	f9007bfe 	[38;5;142mstr[0m	[38;5;27mx30[0m, [[38;5;27msp[0m, [38;5;134m#240[0m]
   8140c:	d28001c0 	[38;5;142mmov[0m	[38;5;27mx0[0m, [38;5;134m#0xe                   [0m[38;5;250m	// #14[0m
   81410:	d5385201 	[38;5;142mmrs[0m	[38;5;27mx1[0m, [38;5;27mesr_el1[0m
   81414:	d5384022 	[38;5;142mmrs[0m	[38;5;27mx2[0m, [38;5;27melr_el1[0m
   81418:	1400003a 	[38;5;142mb[0m	[38;5;134m81500[0m <[38;5;40merr_hang[0m>

000000000008141c <error_invalid_el0_32>:
   8141c:	d10403ff 	[38;5;142msub[0m	[38;5;27msp[0m, [38;5;27msp[0m, [38;5;134m#0x100[0m
   81420:	a90007e0 	[38;5;142mstp[0m	[38;5;27mx0[0m, [38;5;27mx1[0m, [[38;5;27msp[0m]
   81424:	a9010fe2 	[38;5;142mstp[0m	[38;5;27mx2[0m, [38;5;27mx3[0m, [[38;5;27msp[0m, [38;5;134m#16[0m]
   81428:	a90217e4 	[38;5;142mstp[0m	[38;5;27mx4[0m, [38;5;27mx5[0m, [[38;5;27msp[0m, [38;5;134m#32[0m]
   8142c:	a9031fe6 	[38;5;142mstp[0m	[38;5;27mx6[0m, [38;5;27mx7[0m, [[38;5;27msp[0m, [38;5;134m#48[0m]
   81430:	a90427e8 	[38;5;142mstp[0m	[38;5;27mx8[0m, [38;5;27mx9[0m, [[38;5;27msp[0m, [38;5;134m#64[0m]
   81434:	a9052fea 	[38;5;142mstp[0m	[38;5;27mx10[0m, [38;5;27mx11[0m, [[38;5;27msp[0m, [38;5;134m#80[0m]
   81438:	a90637ec 	[38;5;142mstp[0m	[38;5;27mx12[0m, [38;5;27mx13[0m, [[38;5;27msp[0m, [38;5;134m#96[0m]
   8143c:	a9073fee 	[38;5;142mstp[0m	[38;5;27mx14[0m, [38;5;27mx15[0m, [[38;5;27msp[0m, [38;5;134m#112[0m]
   81440:	a90847f0 	[38;5;142mstp[0m	[38;5;27mx16[0m, [38;5;27mx17[0m, [[38;5;27msp[0m, [38;5;134m#128[0m]
   81444:	a9094ff2 	[38;5;142mstp[0m	[38;5;27mx18[0m, [38;5;27mx19[0m, [[38;5;27msp[0m, [38;5;134m#144[0m]
   81448:	a90a57f4 	[38;5;142mstp[0m	[38;5;27mx20[0m, [38;5;27mx21[0m, [[38;5;27msp[0m, [38;5;134m#160[0m]
   8144c:	a90b5ff6 	[38;5;142mstp[0m	[38;5;27mx22[0m, [38;5;27mx23[0m, [[38;5;27msp[0m, [38;5;134m#176[0m]
   81450:	a90c67f8 	[38;5;142mstp[0m	[38;5;27mx24[0m, [38;5;27mx25[0m, [[38;5;27msp[0m, [38;5;134m#192[0m]
   81454:	a90d6ffa 	[38;5;142mstp[0m	[38;5;27mx26[0m, [38;5;27mx27[0m, [[38;5;27msp[0m, [38;5;134m#208[0m]
   81458:	a90e77fc 	[38;5;142mstp[0m	[38;5;27mx28[0m, [38;5;27mx29[0m, [[38;5;27msp[0m, [38;5;134m#224[0m]
   8145c:	f9007bfe 	[38;5;142mstr[0m	[38;5;27mx30[0m, [[38;5;27msp[0m, [38;5;134m#240[0m]
   81460:	d28001e0 	[38;5;142mmov[0m	[38;5;27mx0[0m, [38;5;134m#0xf                   [0m[38;5;250m	// #15[0m
   81464:	d5385201 	[38;5;142mmrs[0m	[38;5;27mx1[0m, [38;5;27mesr_el1[0m
   81468:	d5384022 	[38;5;142mmrs[0m	[38;5;27mx2[0m, [38;5;27melr_el1[0m
   8146c:	14000025 	[38;5;142mb[0m	[38;5;134m81500[0m <[38;5;40merr_hang[0m>

0000000000081470 <handle_el1_irq>:
   81470:	d10403ff 	[38;5;142msub[0m	[38;5;27msp[0m, [38;5;27msp[0m, [38;5;134m#0x100[0m
   81474:	a90007e0 	[38;5;142mstp[0m	[38;5;27mx0[0m, [38;5;27mx1[0m, [[38;5;27msp[0m]
   81478:	a9010fe2 	[38;5;142mstp[0m	[38;5;27mx2[0m, [38;5;27mx3[0m, [[38;5;27msp[0m, [38;5;134m#16[0m]
   8147c:	a90217e4 	[38;5;142mstp[0m	[38;5;27mx4[0m, [38;5;27mx5[0m, [[38;5;27msp[0m, [38;5;134m#32[0m]
   81480:	a9031fe6 	[38;5;142mstp[0m	[38;5;27mx6[0m, [38;5;27mx7[0m, [[38;5;27msp[0m, [38;5;134m#48[0m]
   81484:	a90427e8 	[38;5;142mstp[0m	[38;5;27mx8[0m, [38;5;27mx9[0m, [[38;5;27msp[0m, [38;5;134m#64[0m]
   81488:	a9052fea 	[38;5;142mstp[0m	[38;5;27mx10[0m, [38;5;27mx11[0m, [[38;5;27msp[0m, [38;5;134m#80[0m]
   8148c:	a90637ec 	[38;5;142mstp[0m	[38;5;27mx12[0m, [38;5;27mx13[0m, [[38;5;27msp[0m, [38;5;134m#96[0m]
   81490:	a9073fee 	[38;5;142mstp[0m	[38;5;27mx14[0m, [38;5;27mx15[0m, [[38;5;27msp[0m, [38;5;134m#112[0m]
   81494:	a90847f0 	[38;5;142mstp[0m	[38;5;27mx16[0m, [38;5;27mx17[0m, [[38;5;27msp[0m, [38;5;134m#128[0m]
   81498:	a9094ff2 	[38;5;142mstp[0m	[38;5;27mx18[0m, [38;5;27mx19[0m, [[38;5;27msp[0m, [38;5;134m#144[0m]
   8149c:	a90a57f4 	[38;5;142mstp[0m	[38;5;27mx20[0m, [38;5;27mx21[0m, [[38;5;27msp[0m, [38;5;134m#160[0m]
   814a0:	a90b5ff6 	[38;5;142mstp[0m	[38;5;27mx22[0m, [38;5;27mx23[0m, [[38;5;27msp[0m, [38;5;134m#176[0m]
   814a4:	a90c67f8 	[38;5;142mstp[0m	[38;5;27mx24[0m, [38;5;27mx25[0m, [[38;5;27msp[0m, [38;5;134m#192[0m]
   814a8:	a90d6ffa 	[38;5;142mstp[0m	[38;5;27mx26[0m, [38;5;27mx27[0m, [[38;5;27msp[0m, [38;5;134m#208[0m]
   814ac:	a90e77fc 	[38;5;142mstp[0m	[38;5;27mx28[0m, [38;5;27mx29[0m, [[38;5;27msp[0m, [38;5;134m#224[0m]
   814b0:	f9007bfe 	[38;5;142mstr[0m	[38;5;27mx30[0m, [[38;5;27msp[0m, [38;5;134m#240[0m]
   814b4:	94000014 	[38;5;142mbl[0m	[38;5;134m81504[0m <[38;5;40mhandle_irq[0m>
   814b8:	a94007e0 	[38;5;142mldp[0m	[38;5;27mx0[0m, [38;5;27mx1[0m, [[38;5;27msp[0m]
   814bc:	a9410fe2 	[38;5;142mldp[0m	[38;5;27mx2[0m, [38;5;27mx3[0m, [[38;5;27msp[0m, [38;5;134m#16[0m]
   814c0:	a94217e4 	[38;5;142mldp[0m	[38;5;27mx4[0m, [38;5;27mx5[0m, [[38;5;27msp[0m, [38;5;134m#32[0m]
   814c4:	a9431fe6 	[38;5;142mldp[0m	[38;5;27mx6[0m, [38;5;27mx7[0m, [[38;5;27msp[0m, [38;5;134m#48[0m]
   814c8:	a94427e8 	[38;5;142mldp[0m	[38;5;27mx8[0m, [38;5;27mx9[0m, [[38;5;27msp[0m, [38;5;134m#64[0m]
   814cc:	a9452fea 	[38;5;142mldp[0m	[38;5;27mx10[0m, [38;5;27mx11[0m, [[38;5;27msp[0m, [38;5;134m#80[0m]
   814d0:	a94637ec 	[38;5;142mldp[0m	[38;5;27mx12[0m, [38;5;27mx13[0m, [[38;5;27msp[0m, [38;5;134m#96[0m]
   814d4:	a9473fee 	[38;5;142mldp[0m	[38;5;27mx14[0m, [38;5;27mx15[0m, [[38;5;27msp[0m, [38;5;134m#112[0m]
   814d8:	a94847f0 	[38;5;142mldp[0m	[38;5;27mx16[0m, [38;5;27mx17[0m, [[38;5;27msp[0m, [38;5;134m#128[0m]
   814dc:	a9494ff2 	[38;5;142mldp[0m	[38;5;27mx18[0m, [38;5;27mx19[0m, [[38;5;27msp[0m, [38;5;134m#144[0m]
   814e0:	a94a57f4 	[38;5;142mldp[0m	[38;5;27mx20[0m, [38;5;27mx21[0m, [[38;5;27msp[0m, [38;5;134m#160[0m]
   814e4:	a94b5ff6 	[38;5;142mldp[0m	[38;5;27mx22[0m, [38;5;27mx23[0m, [[38;5;27msp[0m, [38;5;134m#176[0m]
   814e8:	a94c67f8 	[38;5;142mldp[0m	[38;5;27mx24[0m, [38;5;27mx25[0m, [[38;5;27msp[0m, [38;5;134m#192[0m]
   814ec:	a94d6ffa 	[38;5;142mldp[0m	[38;5;27mx26[0m, [38;5;27mx27[0m, [[38;5;27msp[0m, [38;5;134m#208[0m]
   814f0:	a94e77fc 	[38;5;142mldp[0m	[38;5;27mx28[0m, [38;5;27mx29[0m, [[38;5;27msp[0m, [38;5;134m#224[0m]
   814f4:	f9407bfe 	[38;5;142mldr[0m	[38;5;27mx30[0m, [[38;5;27msp[0m, [38;5;134m#240[0m]
   814f8:	910403ff 	[38;5;142madd[0m	[38;5;27msp[0m, [38;5;27msp[0m, [38;5;134m#0x100[0m
   814fc:	d69f03e0 	[38;5;142meret[0m

0000000000081500 <err_hang>:
   81500:	14000000 	[38;5;142mb[0m	[38;5;134m81500[0m <[38;5;40merr_hang[0m>

0000000000081504 <handle_irq>:
   81504:	a9bf4ffe 	[38;5;142mstp[0m	[38;5;27mx30[0m, [38;5;27mx19[0m, [[38;5;27msp[0m, [38;5;134m#-16[0m]!
   81508:	52964008 	[38;5;142mmov[0m	[38;5;27mw8[0m, [38;5;134m#0xb200                [0m[38;5;250m	// #45568[0m
   8150c:	72bfc008 	[38;5;142mmovk[0m	[38;5;27mw8[0m, [38;5;134m#0xfe00[0m, [38;5;142mlsl[0m [38;5;134m#16[0m
   81510:	b9400108 	[38;5;142mldr[0m	[38;5;27mw8[0m, [[38;5;27mx8[0m]
   81514:	340000c8 	[38;5;142mcbz[0m	[38;5;27mw8[0m, [38;5;134m8152c[0m <[38;5;40mhandle_irq[0m[38;5;134m+0x[0m[38;5;134m28[0m>
   81518:	36080088 	[38;5;142mtbz[0m	[38;5;27mw8[0m, [38;5;134m#1[0m, [38;5;134m81528[0m <[38;5;40mhandle_irq[0m[38;5;134m+0x[0m[38;5;134m24[0m>
   8151c:	121e7913 	[38;5;142mand[0m	[38;5;27mw19[0m, [38;5;27mw8[0m, [38;5;134m#0xfffffffd[0m
   81520:	94000005 	[38;5;142mbl[0m	[38;5;134m81534[0m <[38;5;40mhandle_timer_1[0m>
   81524:	34000053 	[38;5;142mcbz[0m	[38;5;27mw19[0m, [38;5;134m8152c[0m <[38;5;40mhandle_irq[0m[38;5;134m+0x[0m[38;5;134m28[0m>
   81528:	14000000 	[38;5;142mb[0m	[38;5;134m81528[0m <[38;5;40mhandle_irq[0m[38;5;134m+0x[0m[38;5;134m24[0m>
   8152c:	a8c14ffe 	[38;5;142mldp[0m	[38;5;27mx30[0m, [38;5;27mx19[0m, [[38;5;27msp[0m], [38;5;134m#16[0m
   81530:	d65f03c0 	[38;5;142mret[0m

0000000000081534 <handle_timer_1>:
   81534:	528a0a88 	[38;5;142mmov[0m	[38;5;27mw8[0m, [38;5;134m#0x5054                [0m[38;5;250m	// #20564[0m
   81538:	d503201f 	[38;5;142mnop[0m
   8153c:	1000360a 	[38;5;142madr[0m	[38;5;27mx10[0m, [38;5;134m81bfc[0m <[38;5;40mmain[0m[38;5;134m+0x[0m[38;5;134m4e4[0m>
   81540:	72bfc428 	[38;5;142mmovk[0m	[38;5;27mw8[0m, [38;5;134m#0xfe21[0m, [38;5;142mlsl[0m [38;5;134m#16[0m
   81544:	90000009 	[38;5;142madrp[0m	[38;5;27mx9[0m, [38;5;134m81000[0m <[38;5;40mirq_invalid_el1t[0m[38;5;134m+0x[0m[38;5;134m28[0m>
   81548:	91308129 	[38;5;142madd[0m	[38;5;27mx9[0m, [38;5;27mx9[0m, [38;5;134m#0xc20[0m
   8154c:	14000004 	[38;5;142mb[0m	[38;5;134m8155c[0m <[38;5;40mhandle_timer_1[0m[38;5;134m+0x[0m[38;5;134m28[0m>
   81550:	eb09015f 	[38;5;142mcmp[0m	[38;5;27mx10[0m, [38;5;27mx9[0m
   81554:	b81ec10b 	[38;5;142mstur[0m	[38;5;27mw11[0m, [[38;5;27mx8[0m, [38;5;134m#-20[0m]
   81558:	540005c0 	[38;5;142mb.eq[0m	[38;5;134m81610[0m <[38;5;40mhandle_timer_1[0m[38;5;134m+0x[0m[38;5;134mdc[0m>[38;5;250m  // b.none[0m
   8155c:	aa0a03eb 	[38;5;142mmov[0m	[38;5;27mx11[0m, [38;5;27mx10[0m
   81560:	38c0156d 	[38;5;142mldrsb[0m	[38;5;27mw13[0m, [[38;5;27mx11[0m], [38;5;134m#1[0m
   81564:	12001dac 	[38;5;142mand[0m	[38;5;27mw12[0m, [38;5;27mw13[0m, [38;5;134m#0xff[0m
   81568:	37f800cd 	[38;5;142mtbnz[0m	[38;5;27mw13[0m, [38;5;134m#31[0m, [38;5;134m81580[0m <[38;5;40mhandle_timer_1[0m[38;5;134m+0x[0m[38;5;134m4c[0m>
   8156c:	aa0b03ea 	[38;5;142mmov[0m	[38;5;27mx10[0m, [38;5;27mx11[0m
   81570:	2a0c03eb 	[38;5;142mmov[0m	[38;5;27mw11[0m, [38;5;27mw12[0m
   81574:	7100299f 	[38;5;142mcmp[0m	[38;5;27mw12[0m, [38;5;134m#0xa[0m
   81578:	540003a1 	[38;5;142mb.ne[0m	[38;5;134m815ec[0m <[38;5;40mhandle_timer_1[0m[38;5;134m+0x[0m[38;5;134mb8[0m>[38;5;250m  // b.any[0m
   8157c:	14000021 	[38;5;142mb[0m	[38;5;134m81600[0m <[38;5;40mhandle_timer_1[0m[38;5;134m+0x[0m[38;5;134mcc[0m>
   81580:	3940054b 	[38;5;142mldrb[0m	[38;5;27mw11[0m, [[38;5;27mx10[0m, [38;5;134m#1[0m]
   81584:	71037d9f 	[38;5;142mcmp[0m	[38;5;27mw12[0m, [38;5;134m#0xdf[0m
   81588:	1200156b 	[38;5;142mand[0m	[38;5;27mw11[0m, [38;5;27mw11[0m, [38;5;134m#0x3f[0m
   8158c:	540001e9 	[38;5;142mb.ls[0m	[38;5;134m815c8[0m <[38;5;40mhandle_timer_1[0m[38;5;134m+0x[0m[38;5;134m94[0m>[38;5;250m  // b.plast[0m
   81590:	3940094d 	[38;5;142mldrb[0m	[38;5;27mw13[0m, [[38;5;27mx10[0m, [38;5;134m#2[0m]
   81594:	7103c19f 	[38;5;142mcmp[0m	[38;5;27mw12[0m, [38;5;134m#0xf0[0m
   81598:	120015ae 	[38;5;142mand[0m	[38;5;27mw14[0m, [38;5;27mw13[0m, [38;5;134m#0x3f[0m
   8159c:	1200118d 	[38;5;142mand[0m	[38;5;27mw13[0m, [38;5;27mw12[0m, [38;5;134m#0x1f[0m
   815a0:	2a0b19cb 	[38;5;142morr[0m	[38;5;27mw11[0m, [38;5;27mw14[0m, [38;5;27mw11[0m, [38;5;142mlsl[0m [38;5;134m#6[0m
   815a4:	540001c3 	[38;5;142mb.cc[0m	[38;5;134m815dc[0m <[38;5;40mhandle_timer_1[0m[38;5;134m+0x[0m[38;5;134ma8[0m>[38;5;250m  // b.lo[0m[38;5;250m, b.ul[0m[38;5;250m, b.last[0m
   815a8:	39400d4c 	[38;5;142mldrb[0m	[38;5;27mw12[0m, [[38;5;27mx10[0m, [38;5;134m#3[0m]
   815ac:	9100114a 	[38;5;142madd[0m	[38;5;27mx10[0m, [38;5;27mx10[0m, [38;5;134m#0x4[0m
   815b0:	1200158c 	[38;5;142mand[0m	[38;5;27mw12[0m, [38;5;27mw12[0m, [38;5;134m#0x3f[0m
   815b4:	2a0b198b 	[38;5;142morr[0m	[38;5;27mw11[0m, [38;5;27mw12[0m, [38;5;27mw11[0m, [38;5;142mlsl[0m [38;5;134m#6[0m
   815b8:	330e09ab 	[38;5;142mbfi[0m	[38;5;27mw11[0m, [38;5;27mw13[0m, [38;5;134m#18[0m, [38;5;134m#3[0m
   815bc:	7100297f 	[38;5;142mcmp[0m	[38;5;27mw11[0m, [38;5;134m#0xa[0m
   815c0:	54000161 	[38;5;142mb.ne[0m	[38;5;134m815ec[0m <[38;5;40mhandle_timer_1[0m[38;5;134m+0x[0m[38;5;134mb8[0m>[38;5;250m  // b.any[0m
   815c4:	1400000f 	[38;5;142mb[0m	[38;5;134m81600[0m <[38;5;40mhandle_timer_1[0m[38;5;134m+0x[0m[38;5;134mcc[0m>
   815c8:	9100094a 	[38;5;142madd[0m	[38;5;27mx10[0m, [38;5;27mx10[0m, [38;5;134m#0x2[0m
   815cc:	331a118b 	[38;5;142mbfi[0m	[38;5;27mw11[0m, [38;5;27mw12[0m, [38;5;134m#6[0m, [38;5;134m#5[0m
   815d0:	7100297f 	[38;5;142mcmp[0m	[38;5;27mw11[0m, [38;5;134m#0xa[0m
   815d4:	540000c1 	[38;5;142mb.ne[0m	[38;5;134m815ec[0m <[38;5;40mhandle_timer_1[0m[38;5;134m+0x[0m[38;5;134mb8[0m>[38;5;250m  // b.any[0m
   815d8:	1400000a 	[38;5;142mb[0m	[38;5;134m81600[0m <[38;5;40mhandle_timer_1[0m[38;5;134m+0x[0m[38;5;134mcc[0m>
   815dc:	91000d4a 	[38;5;142madd[0m	[38;5;27mx10[0m, [38;5;27mx10[0m, [38;5;134m#0x3[0m
   815e0:	2a0d316b 	[38;5;142morr[0m	[38;5;27mw11[0m, [38;5;27mw11[0m, [38;5;27mw13[0m, [38;5;142mlsl[0m [38;5;134m#12[0m
   815e4:	7100297f 	[38;5;142mcmp[0m	[38;5;27mw11[0m, [38;5;134m#0xa[0m
   815e8:	540000c0 	[38;5;142mb.eq[0m	[38;5;134m81600[0m <[38;5;40mhandle_timer_1[0m[38;5;134m+0x[0m[38;5;134mcc[0m>[38;5;250m  // b.none[0m
   815ec:	7144417f 	[38;5;142mcmp[0m	[38;5;27mw11[0m, [38;5;134m#0x110[0m, [38;5;142mlsl[0m [38;5;134m#12[0m
   815f0:	54000100 	[38;5;142mb.eq[0m	[38;5;134m81610[0m <[38;5;40mhandle_timer_1[0m[38;5;134m+0x[0m[38;5;134mdc[0m>[38;5;250m  // b.none[0m
   815f4:	b940010c 	[38;5;142mldr[0m	[38;5;27mw12[0m, [[38;5;27mx8[0m]
   815f8:	362fffec 	[38;5;142mtbz[0m	[38;5;27mw12[0m, [38;5;134m#5[0m, [38;5;134m815f4[0m <[38;5;40mhandle_timer_1[0m[38;5;134m+0x[0m[38;5;134mc0[0m>
   815fc:	17ffffd5 	[38;5;142mb[0m	[38;5;134m81550[0m <[38;5;40mhandle_timer_1[0m[38;5;134m+0x[0m[38;5;134m1c[0m>
   81600:	b940010b 	[38;5;142mldr[0m	[38;5;27mw11[0m, [[38;5;27mx8[0m]
   81604:	362fffeb 	[38;5;142mtbz[0m	[38;5;27mw11[0m, [38;5;134m#5[0m, [38;5;134m81600[0m <[38;5;40mhandle_timer_1[0m[38;5;134m+0x[0m[38;5;134mcc[0m>
   81608:	5280014b 	[38;5;142mmov[0m	[38;5;27mw11[0m, [38;5;134m#0xa                   [0m[38;5;250m	// #10[0m
   8160c:	17ffffd1 	[38;5;142mb[0m	[38;5;134m81550[0m <[38;5;40mhandle_timer_1[0m[38;5;134m+0x[0m[38;5;134m1c[0m>
   81610:	d503201f 	[38;5;142mnop[0m
   81614:	10003569 	[38;5;142madr[0m	[38;5;27mx9[0m, [38;5;134m81cc0[0m <[38;5;40m_ZN7kernel89TIMER_VAL17he3b95a0cae862744E.0[0m>
   81618:	5286000c 	[38;5;142mmov[0m	[38;5;27mw12[0m, [38;5;134m#0x3000                [0m[38;5;250m	// #12288[0m
   8161c:	72bfc00c 	[38;5;142mmovk[0m	[38;5;27mw12[0m, [38;5;134m#0xfe00[0m, [38;5;142mlsl[0m [38;5;134m#16[0m
   81620:	2940292b 	[38;5;142mldp[0m	[38;5;27mw11[0m, [38;5;27mw10[0m, [[38;5;27mx9[0m]
   81624:	1100054a 	[38;5;142madd[0m	[38;5;27mw10[0m, [38;5;27mw10[0m, [38;5;134m#0x1[0m
   81628:	1100056b 	[38;5;142madd[0m	[38;5;27mw11[0m, [38;5;27mw11[0m, [38;5;134m#0x1[0m
   8162c:	2900292b 	[38;5;142mstp[0m	[38;5;27mw11[0m, [38;5;27mw10[0m, [[38;5;27mx9[0m]
   81630:	d503201f 	[38;5;142mnop[0m
   81634:	10002f6a 	[38;5;142madr[0m	[38;5;27mx10[0m, [38;5;134m81c20[0m <[38;5;40mmain[0m[38;5;134m+0x[0m[38;5;134m508[0m>
   81638:	b900118b 	[38;5;142mstr[0m	[38;5;27mw11[0m, [[38;5;27mx12[0m, [38;5;134m#16[0m]
   8163c:	b9400189 	[38;5;142mldr[0m	[38;5;27mw9[0m, [[38;5;27mx12[0m]
   81640:	321f0129 	[38;5;142morr[0m	[38;5;27mw9[0m, [38;5;27mw9[0m, [38;5;134m#0x2[0m
   81644:	b9000189 	[38;5;142mstr[0m	[38;5;27mw9[0m, [[38;5;27mx12[0m]
   81648:	90000009 	[38;5;142madrp[0m	[38;5;27mx9[0m, [38;5;134m81000[0m <[38;5;40mirq_invalid_el1t[0m[38;5;134m+0x[0m[38;5;134m28[0m>
   8164c:	9130ed29 	[38;5;142madd[0m	[38;5;27mx9[0m, [38;5;27mx9[0m, [38;5;134m#0xc3b[0m
   81650:	14000004 	[38;5;142mb[0m	[38;5;134m81660[0m <[38;5;40mhandle_timer_1[0m[38;5;134m+0x[0m[38;5;134m12c[0m>
   81654:	eb09015f 	[38;5;142mcmp[0m	[38;5;27mx10[0m, [38;5;27mx9[0m
   81658:	b81ec10b 	[38;5;142mstur[0m	[38;5;27mw11[0m, [[38;5;27mx8[0m, [38;5;134m#-20[0m]
   8165c:	540005c0 	[38;5;142mb.eq[0m	[38;5;134m81714[0m <[38;5;40mhandle_timer_1[0m[38;5;134m+0x[0m[38;5;134m1e0[0m>[38;5;250m  // b.none[0m
   81660:	aa0a03eb 	[38;5;142mmov[0m	[38;5;27mx11[0m, [38;5;27mx10[0m
   81664:	38c0156d 	[38;5;142mldrsb[0m	[38;5;27mw13[0m, [[38;5;27mx11[0m], [38;5;134m#1[0m
   81668:	12001dac 	[38;5;142mand[0m	[38;5;27mw12[0m, [38;5;27mw13[0m, [38;5;134m#0xff[0m
   8166c:	37f800cd 	[38;5;142mtbnz[0m	[38;5;27mw13[0m, [38;5;134m#31[0m, [38;5;134m81684[0m <[38;5;40mhandle_timer_1[0m[38;5;134m+0x[0m[38;5;134m150[0m>
   81670:	aa0b03ea 	[38;5;142mmov[0m	[38;5;27mx10[0m, [38;5;27mx11[0m
   81674:	2a0c03eb 	[38;5;142mmov[0m	[38;5;27mw11[0m, [38;5;27mw12[0m
   81678:	7100299f 	[38;5;142mcmp[0m	[38;5;27mw12[0m, [38;5;134m#0xa[0m
   8167c:	540003a1 	[38;5;142mb.ne[0m	[38;5;134m816f0[0m <[38;5;40mhandle_timer_1[0m[38;5;134m+0x[0m[38;5;134m1bc[0m>[38;5;250m  // b.any[0m
   81680:	14000021 	[38;5;142mb[0m	[38;5;134m81704[0m <[38;5;40mhandle_timer_1[0m[38;5;134m+0x[0m[38;5;134m1d0[0m>
   81684:	3940054b 	[38;5;142mldrb[0m	[38;5;27mw11[0m, [[38;5;27mx10[0m, [38;5;134m#1[0m]
   81688:	71037d9f 	[38;5;142mcmp[0m	[38;5;27mw12[0m, [38;5;134m#0xdf[0m
   8168c:	1200156b 	[38;5;142mand[0m	[38;5;27mw11[0m, [38;5;27mw11[0m, [38;5;134m#0x3f[0m
   81690:	540001e9 	[38;5;142mb.ls[0m	[38;5;134m816cc[0m <[38;5;40mhandle_timer_1[0m[38;5;134m+0x[0m[38;5;134m198[0m>[38;5;250m  // b.plast[0m
   81694:	3940094d 	[38;5;142mldrb[0m	[38;5;27mw13[0m, [[38;5;27mx10[0m, [38;5;134m#2[0m]
   81698:	7103c19f 	[38;5;142mcmp[0m	[38;5;27mw12[0m, [38;5;134m#0xf0[0m
   8169c:	120015ae 	[38;5;142mand[0m	[38;5;27mw14[0m, [38;5;27mw13[0m, [38;5;134m#0x3f[0m
   816a0:	1200118d 	[38;5;142mand[0m	[38;5;27mw13[0m, [38;5;27mw12[0m, [38;5;134m#0x1f[0m
   816a4:	2a0b19cb 	[38;5;142morr[0m	[38;5;27mw11[0m, [38;5;27mw14[0m, [38;5;27mw11[0m, [38;5;142mlsl[0m [38;5;134m#6[0m
   816a8:	540001c3 	[38;5;142mb.cc[0m	[38;5;134m816e0[0m <[38;5;40mhandle_timer_1[0m[38;5;134m+0x[0m[38;5;134m1ac[0m>[38;5;250m  // b.lo[0m[38;5;250m, b.ul[0m[38;5;250m, b.last[0m
   816ac:	39400d4c 	[38;5;142mldrb[0m	[38;5;27mw12[0m, [[38;5;27mx10[0m, [38;5;134m#3[0m]
   816b0:	9100114a 	[38;5;142madd[0m	[38;5;27mx10[0m, [38;5;27mx10[0m, [38;5;134m#0x4[0m
   816b4:	1200158c 	[38;5;142mand[0m	[38;5;27mw12[0m, [38;5;27mw12[0m, [38;5;134m#0x3f[0m
   816b8:	2a0b198b 	[38;5;142morr[0m	[38;5;27mw11[0m, [38;5;27mw12[0m, [38;5;27mw11[0m, [38;5;142mlsl[0m [38;5;134m#6[0m
   816bc:	330e09ab 	[38;5;142mbfi[0m	[38;5;27mw11[0m, [38;5;27mw13[0m, [38;5;134m#18[0m, [38;5;134m#3[0m
   816c0:	7100297f 	[38;5;142mcmp[0m	[38;5;27mw11[0m, [38;5;134m#0xa[0m
   816c4:	54000161 	[38;5;142mb.ne[0m	[38;5;134m816f0[0m <[38;5;40mhandle_timer_1[0m[38;5;134m+0x[0m[38;5;134m1bc[0m>[38;5;250m  // b.any[0m
   816c8:	1400000f 	[38;5;142mb[0m	[38;5;134m81704[0m <[38;5;40mhandle_timer_1[0m[38;5;134m+0x[0m[38;5;134m1d0[0m>
   816cc:	9100094a 	[38;5;142madd[0m	[38;5;27mx10[0m, [38;5;27mx10[0m, [38;5;134m#0x2[0m
   816d0:	331a118b 	[38;5;142mbfi[0m	[38;5;27mw11[0m, [38;5;27mw12[0m, [38;5;134m#6[0m, [38;5;134m#5[0m
   816d4:	7100297f 	[38;5;142mcmp[0m	[38;5;27mw11[0m, [38;5;134m#0xa[0m
   816d8:	540000c1 	[38;5;142mb.ne[0m	[38;5;134m816f0[0m <[38;5;40mhandle_timer_1[0m[38;5;134m+0x[0m[38;5;134m1bc[0m>[38;5;250m  // b.any[0m
   816dc:	1400000a 	[38;5;142mb[0m	[38;5;134m81704[0m <[38;5;40mhandle_timer_1[0m[38;5;134m+0x[0m[38;5;134m1d0[0m>
   816e0:	91000d4a 	[38;5;142madd[0m	[38;5;27mx10[0m, [38;5;27mx10[0m, [38;5;134m#0x3[0m
   816e4:	2a0d316b 	[38;5;142morr[0m	[38;5;27mw11[0m, [38;5;27mw11[0m, [38;5;27mw13[0m, [38;5;142mlsl[0m [38;5;134m#12[0m
   816e8:	7100297f 	[38;5;142mcmp[0m	[38;5;27mw11[0m, [38;5;134m#0xa[0m
   816ec:	540000c0 	[38;5;142mb.eq[0m	[38;5;134m81704[0m <[38;5;40mhandle_timer_1[0m[38;5;134m+0x[0m[38;5;134m1d0[0m>[38;5;250m  // b.none[0m
   816f0:	7144417f 	[38;5;142mcmp[0m	[38;5;27mw11[0m, [38;5;134m#0x110[0m, [38;5;142mlsl[0m [38;5;134m#12[0m
   816f4:	54000100 	[38;5;142mb.eq[0m	[38;5;134m81714[0m <[38;5;40mhandle_timer_1[0m[38;5;134m+0x[0m[38;5;134m1e0[0m>[38;5;250m  // b.none[0m
   816f8:	b940010c 	[38;5;142mldr[0m	[38;5;27mw12[0m, [[38;5;27mx8[0m]
   816fc:	362fffec 	[38;5;142mtbz[0m	[38;5;27mw12[0m, [38;5;134m#5[0m, [38;5;134m816f8[0m <[38;5;40mhandle_timer_1[0m[38;5;134m+0x[0m[38;5;134m1c4[0m>
   81700:	17ffffd5 	[38;5;142mb[0m	[38;5;134m81654[0m <[38;5;40mhandle_timer_1[0m[38;5;134m+0x[0m[38;5;134m120[0m>
   81704:	b940010b 	[38;5;142mldr[0m	[38;5;27mw11[0m, [[38;5;27mx8[0m]
   81708:	362fffeb 	[38;5;142mtbz[0m	[38;5;27mw11[0m, [38;5;134m#5[0m, [38;5;134m81704[0m <[38;5;40mhandle_timer_1[0m[38;5;134m+0x[0m[38;5;134m1d0[0m>
   8170c:	5280014b 	[38;5;142mmov[0m	[38;5;27mw11[0m, [38;5;134m#0xa                   [0m[38;5;250m	// #10[0m
   81710:	17ffffd1 	[38;5;142mb[0m	[38;5;134m81654[0m <[38;5;40mhandle_timer_1[0m[38;5;134m+0x[0m[38;5;134m120[0m>
   81714:	d65f03c0 	[38;5;142mret[0m

0000000000081718 <main>:
   81718:	a9bf4ffe 	[38;5;142mstp[0m	[38;5;27mx30[0m, [38;5;27mx19[0m, [[38;5;27msp[0m, [38;5;134m#-16[0m]!
   8171c:	528a0a93 	[38;5;142mmov[0m	[38;5;27mw19[0m, [38;5;134m#0x5054                [0m[38;5;250m	// #20564[0m
   81720:	52800028 	[38;5;142mmov[0m	[38;5;27mw8[0m, [38;5;134m#0x1                   [0m[38;5;250m	// #1[0m
   81724:	72bfc433 	[38;5;142mmovk[0m	[38;5;27mw19[0m, [38;5;134m#0xfe21[0m, [38;5;142mlsl[0m [38;5;134m#16[0m
   81728:	5280006a 	[38;5;142mmov[0m	[38;5;27mw10[0m, [38;5;134m#0x3                   [0m[38;5;250m	// #3[0m
   8172c:	528043a9 	[38;5;142mmov[0m	[38;5;27mw9[0m, [38;5;134m#0x21d                 [0m[38;5;250m	// #541[0m
   81730:	5280008b 	[38;5;142mmov[0m	[38;5;27mw11[0m, [38;5;134m#0x4                   [0m[38;5;250m	// #4[0m
   81734:	72bfc40b 	[38;5;142mmovk[0m	[38;5;27mw11[0m, [38;5;134m#0xfe20[0m, [38;5;142mlsl[0m [38;5;134m#16[0m
   81738:	b81b0268 	[38;5;142mstur[0m	[38;5;27mw8[0m, [[38;5;27mx19[0m, [38;5;134m#-80[0m]
   8173c:	528018c8 	[38;5;142mmov[0m	[38;5;27mw8[0m, [38;5;134m#0xc6                  [0m[38;5;250m	// #198[0m
   81740:	b81f027f 	[38;5;142mstur[0m	[38;5;27mwzr[0m, [[38;5;27mx19[0m, [38;5;134m#-16[0m]
   81744:	b9000e7f 	[38;5;142mstr[0m	[38;5;27mwzr[0m, [[38;5;27mx19[0m, [38;5;134m#12[0m]
   81748:	b81f826a 	[38;5;142mstur[0m	[38;5;27mw10[0m, [[38;5;27mx19[0m, [38;5;134m#-8[0m]
   8174c:	b81fc27f 	[38;5;142mstur[0m	[38;5;27mwzr[0m, [[38;5;27mx19[0m, [38;5;134m#-4[0m]
   81750:	b81f027f 	[38;5;142mstur[0m	[38;5;27mwzr[0m, [[38;5;27mx19[0m, [38;5;134m#-16[0m]
   81754:	b81f4268 	[38;5;142mstur[0m	[38;5;27mw8[0m, [[38;5;27mx19[0m, [38;5;134m#-12[0m]
   81758:	b9001669 	[38;5;142mstr[0m	[38;5;27mw9[0m, [[38;5;27mx19[0m, [38;5;134m#20[0m]
   8175c:	d503201f 	[38;5;142mnop[0m
   81760:	700026c9 	[38;5;142madr[0m	[38;5;27mx9[0m, [38;5;134m81c3b[0m <[38;5;40mmain[0m[38;5;134m+0x[0m[38;5;134m523[0m>
   81764:	b940e168 	[38;5;142mldr[0m	[38;5;27mw8[0m, [[38;5;27mx11[0m, [38;5;134m#224[0m]
   81768:	12027508 	[38;5;142mand[0m	[38;5;27mw8[0m, [38;5;27mw8[0m, [38;5;134m#0xcfffffff[0m
   8176c:	b900e168 	[38;5;142mstr[0m	[38;5;27mw8[0m, [[38;5;27mx11[0m, [38;5;134m#224[0m]
   81770:	b9400168 	[38;5;142mldr[0m	[38;5;27mw8[0m, [[38;5;27mx11[0m]
   81774:	12117108 	[38;5;142mand[0m	[38;5;27mw8[0m, [38;5;27mw8[0m, [38;5;134m#0xffff8fff[0m
   81778:	32130108 	[38;5;142morr[0m	[38;5;27mw8[0m, [38;5;27mw8[0m, [38;5;134m#0x2000[0m
   8177c:	b9000168 	[38;5;142mstr[0m	[38;5;27mw8[0m, [[38;5;27mx11[0m]
   81780:	b940e168 	[38;5;142mldr[0m	[38;5;27mw8[0m, [[38;5;27mx11[0m, [38;5;134m#224[0m]
   81784:	12007508 	[38;5;142mand[0m	[38;5;27mw8[0m, [38;5;27mw8[0m, [38;5;134m#0x3fffffff[0m
   81788:	b900e168 	[38;5;142mstr[0m	[38;5;27mw8[0m, [[38;5;27mx11[0m, [38;5;134m#224[0m]
   8178c:	b9400168 	[38;5;142mldr[0m	[38;5;27mw8[0m, [[38;5;27mx11[0m]
   81790:	120e7108 	[38;5;142mand[0m	[38;5;27mw8[0m, [38;5;27mw8[0m, [38;5;134m#0xfffc7fff[0m
   81794:	32100108 	[38;5;142morr[0m	[38;5;27mw8[0m, [38;5;27mw8[0m, [38;5;134m#0x10000[0m
   81798:	b9000168 	[38;5;142mstr[0m	[38;5;27mw8[0m, [[38;5;27mx11[0m]
   8179c:	90000008 	[38;5;142madrp[0m	[38;5;27mx8[0m, [38;5;134m81000[0m <[38;5;40mirq_invalid_el1t[0m[38;5;134m+0x[0m[38;5;134m28[0m>
   817a0:	91310908 	[38;5;142madd[0m	[38;5;27mx8[0m, [38;5;27mx8[0m, [38;5;134m#0xc42[0m
   817a4:	b9000e6a 	[38;5;142mstr[0m	[38;5;27mw10[0m, [[38;5;27mx19[0m, [38;5;134m#12[0m]
   817a8:	14000004 	[38;5;142mb[0m	[38;5;134m817b8[0m <[38;5;40mmain[0m[38;5;134m+0x[0m[38;5;134ma0[0m>
   817ac:	eb08013f 	[38;5;142mcmp[0m	[38;5;27mx9[0m, [38;5;27mx8[0m
   817b0:	b81ec26a 	[38;5;142mstur[0m	[38;5;27mw10[0m, [[38;5;27mx19[0m, [38;5;134m#-20[0m]
   817b4:	540005c0 	[38;5;142mb.eq[0m	[38;5;134m8186c[0m <[38;5;40mmain[0m[38;5;134m+0x[0m[38;5;134m154[0m>[38;5;250m  // b.none[0m
   817b8:	aa0903ea 	[38;5;142mmov[0m	[38;5;27mx10[0m, [38;5;27mx9[0m
   817bc:	38c0154c 	[38;5;142mldrsb[0m	[38;5;27mw12[0m, [[38;5;27mx10[0m], [38;5;134m#1[0m
   817c0:	12001d8b 	[38;5;142mand[0m	[38;5;27mw11[0m, [38;5;27mw12[0m, [38;5;134m#0xff[0m
   817c4:	37f800cc 	[38;5;142mtbnz[0m	[38;5;27mw12[0m, [38;5;134m#31[0m, [38;5;134m817dc[0m <[38;5;40mmain[0m[38;5;134m+0x[0m[38;5;134mc4[0m>
   817c8:	aa0a03e9 	[38;5;142mmov[0m	[38;5;27mx9[0m, [38;5;27mx10[0m
   817cc:	2a0b03ea 	[38;5;142mmov[0m	[38;5;27mw10[0m, [38;5;27mw11[0m
   817d0:	7100297f 	[38;5;142mcmp[0m	[38;5;27mw11[0m, [38;5;134m#0xa[0m
   817d4:	540003a1 	[38;5;142mb.ne[0m	[38;5;134m81848[0m <[38;5;40mmain[0m[38;5;134m+0x[0m[38;5;134m130[0m>[38;5;250m  // b.any[0m
   817d8:	14000021 	[38;5;142mb[0m	[38;5;134m8185c[0m <[38;5;40mmain[0m[38;5;134m+0x[0m[38;5;134m144[0m>
   817dc:	3940052a 	[38;5;142mldrb[0m	[38;5;27mw10[0m, [[38;5;27mx9[0m, [38;5;134m#1[0m]
   817e0:	71037d7f 	[38;5;142mcmp[0m	[38;5;27mw11[0m, [38;5;134m#0xdf[0m
   817e4:	1200154a 	[38;5;142mand[0m	[38;5;27mw10[0m, [38;5;27mw10[0m, [38;5;134m#0x3f[0m
   817e8:	540001e9 	[38;5;142mb.ls[0m	[38;5;134m81824[0m <[38;5;40mmain[0m[38;5;134m+0x[0m[38;5;134m10c[0m>[38;5;250m  // b.plast[0m
   817ec:	3940092c 	[38;5;142mldrb[0m	[38;5;27mw12[0m, [[38;5;27mx9[0m, [38;5;134m#2[0m]
   817f0:	7103c17f 	[38;5;142mcmp[0m	[38;5;27mw11[0m, [38;5;134m#0xf0[0m
   817f4:	1200158d 	[38;5;142mand[0m	[38;5;27mw13[0m, [38;5;27mw12[0m, [38;5;134m#0x3f[0m
   817f8:	1200116c 	[38;5;142mand[0m	[38;5;27mw12[0m, [38;5;27mw11[0m, [38;5;134m#0x1f[0m
   817fc:	2a0a19aa 	[38;5;142morr[0m	[38;5;27mw10[0m, [38;5;27mw13[0m, [38;5;27mw10[0m, [38;5;142mlsl[0m [38;5;134m#6[0m
   81800:	540001c3 	[38;5;142mb.cc[0m	[38;5;134m81838[0m <[38;5;40mmain[0m[38;5;134m+0x[0m[38;5;134m120[0m>[38;5;250m  // b.lo[0m[38;5;250m, b.ul[0m[38;5;250m, b.last[0m
   81804:	39400d2b 	[38;5;142mldrb[0m	[38;5;27mw11[0m, [[38;5;27mx9[0m, [38;5;134m#3[0m]
   81808:	91001129 	[38;5;142madd[0m	[38;5;27mx9[0m, [38;5;27mx9[0m, [38;5;134m#0x4[0m
   8180c:	1200156b 	[38;5;142mand[0m	[38;5;27mw11[0m, [38;5;27mw11[0m, [38;5;134m#0x3f[0m
   81810:	2a0a196a 	[38;5;142morr[0m	[38;5;27mw10[0m, [38;5;27mw11[0m, [38;5;27mw10[0m, [38;5;142mlsl[0m [38;5;134m#6[0m
   81814:	330e098a 	[38;5;142mbfi[0m	[38;5;27mw10[0m, [38;5;27mw12[0m, [38;5;134m#18[0m, [38;5;134m#3[0m
   81818:	7100295f 	[38;5;142mcmp[0m	[38;5;27mw10[0m, [38;5;134m#0xa[0m
   8181c:	54000161 	[38;5;142mb.ne[0m	[38;5;134m81848[0m <[38;5;40mmain[0m[38;5;134m+0x[0m[38;5;134m130[0m>[38;5;250m  // b.any[0m
   81820:	1400000f 	[38;5;142mb[0m	[38;5;134m8185c[0m <[38;5;40mmain[0m[38;5;134m+0x[0m[38;5;134m144[0m>
   81824:	91000929 	[38;5;142madd[0m	[38;5;27mx9[0m, [38;5;27mx9[0m, [38;5;134m#0x2[0m
   81828:	331a116a 	[38;5;142mbfi[0m	[38;5;27mw10[0m, [38;5;27mw11[0m, [38;5;134m#6[0m, [38;5;134m#5[0m
   8182c:	7100295f 	[38;5;142mcmp[0m	[38;5;27mw10[0m, [38;5;134m#0xa[0m
   81830:	540000c1 	[38;5;142mb.ne[0m	[38;5;134m81848[0m <[38;5;40mmain[0m[38;5;134m+0x[0m[38;5;134m130[0m>[38;5;250m  // b.any[0m
   81834:	1400000a 	[38;5;142mb[0m	[38;5;134m8185c[0m <[38;5;40mmain[0m[38;5;134m+0x[0m[38;5;134m144[0m>
   81838:	91000d29 	[38;5;142madd[0m	[38;5;27mx9[0m, [38;5;27mx9[0m, [38;5;134m#0x3[0m
   8183c:	2a0c314a 	[38;5;142morr[0m	[38;5;27mw10[0m, [38;5;27mw10[0m, [38;5;27mw12[0m, [38;5;142mlsl[0m [38;5;134m#12[0m
   81840:	7100295f 	[38;5;142mcmp[0m	[38;5;27mw10[0m, [38;5;134m#0xa[0m
   81844:	540000c0 	[38;5;142mb.eq[0m	[38;5;134m8185c[0m <[38;5;40mmain[0m[38;5;134m+0x[0m[38;5;134m144[0m>[38;5;250m  // b.none[0m
   81848:	7144415f 	[38;5;142mcmp[0m	[38;5;27mw10[0m, [38;5;134m#0x110[0m, [38;5;142mlsl[0m [38;5;134m#12[0m
   8184c:	54000100 	[38;5;142mb.eq[0m	[38;5;134m8186c[0m <[38;5;40mmain[0m[38;5;134m+0x[0m[38;5;134m154[0m>[38;5;250m  // b.none[0m
   81850:	b940026b 	[38;5;142mldr[0m	[38;5;27mw11[0m, [[38;5;27mx19[0m]
   81854:	362fffeb 	[38;5;142mtbz[0m	[38;5;27mw11[0m, [38;5;134m#5[0m, [38;5;134m81850[0m <[38;5;40mmain[0m[38;5;134m+0x[0m[38;5;134m138[0m>
   81858:	17ffffd5 	[38;5;142mb[0m	[38;5;134m817ac[0m <[38;5;40mmain[0m[38;5;134m+0x[0m[38;5;134m94[0m>
   8185c:	b940026a 	[38;5;142mldr[0m	[38;5;27mw10[0m, [[38;5;27mx19[0m]
   81860:	362fffea 	[38;5;142mtbz[0m	[38;5;27mw10[0m, [38;5;134m#5[0m, [38;5;134m8185c[0m <[38;5;40mmain[0m[38;5;134m+0x[0m[38;5;134m144[0m>
   81864:	5280014a 	[38;5;142mmov[0m	[38;5;27mw10[0m, [38;5;134m#0xa                   [0m[38;5;250m	// #10[0m
   81868:	17ffffd1 	[38;5;142mb[0m	[38;5;134m817ac[0m <[38;5;40mmain[0m[38;5;134m+0x[0m[38;5;134m94[0m>
   8186c:	97fffa18 	[38;5;142mbl[0m	[38;5;134m800cc[0m <[38;5;40mirq_init_vectors[0m>
   81870:	d503201f 	[38;5;142mnop[0m
   81874:	50001e69 	[38;5;142madr[0m	[38;5;27mx9[0m, [38;5;134m81c42[0m <[38;5;40mmain[0m[38;5;134m+0x[0m[38;5;134m52a[0m>
   81878:	90000008 	[38;5;142madrp[0m	[38;5;27mx8[0m, [38;5;134m81000[0m <[38;5;40mirq_invalid_el1t[0m[38;5;134m+0x[0m[38;5;134m28[0m>
   8187c:	91317908 	[38;5;142madd[0m	[38;5;27mx8[0m, [38;5;27mx8[0m, [38;5;134m#0xc5e[0m
   81880:	14000004 	[38;5;142mb[0m	[38;5;134m81890[0m <[38;5;40mmain[0m[38;5;134m+0x[0m[38;5;134m178[0m>
   81884:	eb08013f 	[38;5;142mcmp[0m	[38;5;27mx9[0m, [38;5;27mx8[0m
   81888:	b81ec26a 	[38;5;142mstur[0m	[38;5;27mw10[0m, [[38;5;27mx19[0m, [38;5;134m#-20[0m]
   8188c:	540005c0 	[38;5;142mb.eq[0m	[38;5;134m81944[0m <[38;5;40mmain[0m[38;5;134m+0x[0m[38;5;134m22c[0m>[38;5;250m  // b.none[0m
   81890:	aa0903ea 	[38;5;142mmov[0m	[38;5;27mx10[0m, [38;5;27mx9[0m
   81894:	38c0154c 	[38;5;142mldrsb[0m	[38;5;27mw12[0m, [[38;5;27mx10[0m], [38;5;134m#1[0m
   81898:	12001d8b 	[38;5;142mand[0m	[38;5;27mw11[0m, [38;5;27mw12[0m, [38;5;134m#0xff[0m
   8189c:	37f800cc 	[38;5;142mtbnz[0m	[38;5;27mw12[0m, [38;5;134m#31[0m, [38;5;134m818b4[0m <[38;5;40mmain[0m[38;5;134m+0x[0m[38;5;134m19c[0m>
   818a0:	aa0a03e9 	[38;5;142mmov[0m	[38;5;27mx9[0m, [38;5;27mx10[0m
   818a4:	2a0b03ea 	[38;5;142mmov[0m	[38;5;27mw10[0m, [38;5;27mw11[0m
   818a8:	7100297f 	[38;5;142mcmp[0m	[38;5;27mw11[0m, [38;5;134m#0xa[0m
   818ac:	540003a1 	[38;5;142mb.ne[0m	[38;5;134m81920[0m <[38;5;40mmain[0m[38;5;134m+0x[0m[38;5;134m208[0m>[38;5;250m  // b.any[0m
   818b0:	14000021 	[38;5;142mb[0m	[38;5;134m81934[0m <[38;5;40mmain[0m[38;5;134m+0x[0m[38;5;134m21c[0m>
   818b4:	3940052a 	[38;5;142mldrb[0m	[38;5;27mw10[0m, [[38;5;27mx9[0m, [38;5;134m#1[0m]
   818b8:	71037d7f 	[38;5;142mcmp[0m	[38;5;27mw11[0m, [38;5;134m#0xdf[0m
   818bc:	1200154a 	[38;5;142mand[0m	[38;5;27mw10[0m, [38;5;27mw10[0m, [38;5;134m#0x3f[0m
   818c0:	540001e9 	[38;5;142mb.ls[0m	[38;5;134m818fc[0m <[38;5;40mmain[0m[38;5;134m+0x[0m[38;5;134m1e4[0m>[38;5;250m  // b.plast[0m
   818c4:	3940092c 	[38;5;142mldrb[0m	[38;5;27mw12[0m, [[38;5;27mx9[0m, [38;5;134m#2[0m]
   818c8:	7103c17f 	[38;5;142mcmp[0m	[38;5;27mw11[0m, [38;5;134m#0xf0[0m
   818cc:	1200158d 	[38;5;142mand[0m	[38;5;27mw13[0m, [38;5;27mw12[0m, [38;5;134m#0x3f[0m
   818d0:	1200116c 	[38;5;142mand[0m	[38;5;27mw12[0m, [38;5;27mw11[0m, [38;5;134m#0x1f[0m
   818d4:	2a0a19aa 	[38;5;142morr[0m	[38;5;27mw10[0m, [38;5;27mw13[0m, [38;5;27mw10[0m, [38;5;142mlsl[0m [38;5;134m#6[0m
   818d8:	540001c3 	[38;5;142mb.cc[0m	[38;5;134m81910[0m <[38;5;40mmain[0m[38;5;134m+0x[0m[38;5;134m1f8[0m>[38;5;250m  // b.lo[0m[38;5;250m, b.ul[0m[38;5;250m, b.last[0m
   818dc:	39400d2b 	[38;5;142mldrb[0m	[38;5;27mw11[0m, [[38;5;27mx9[0m, [38;5;134m#3[0m]
   818e0:	91001129 	[38;5;142madd[0m	[38;5;27mx9[0m, [38;5;27mx9[0m, [38;5;134m#0x4[0m
   818e4:	1200156b 	[38;5;142mand[0m	[38;5;27mw11[0m, [38;5;27mw11[0m, [38;5;134m#0x3f[0m
   818e8:	2a0a196a 	[38;5;142morr[0m	[38;5;27mw10[0m, [38;5;27mw11[0m, [38;5;27mw10[0m, [38;5;142mlsl[0m [38;5;134m#6[0m
   818ec:	330e098a 	[38;5;142mbfi[0m	[38;5;27mw10[0m, [38;5;27mw12[0m, [38;5;134m#18[0m, [38;5;134m#3[0m
   818f0:	7100295f 	[38;5;142mcmp[0m	[38;5;27mw10[0m, [38;5;134m#0xa[0m
   818f4:	54000161 	[38;5;142mb.ne[0m	[38;5;134m81920[0m <[38;5;40mmain[0m[38;5;134m+0x[0m[38;5;134m208[0m>[38;5;250m  // b.any[0m
   818f8:	1400000f 	[38;5;142mb[0m	[38;5;134m81934[0m <[38;5;40mmain[0m[38;5;134m+0x[0m[38;5;134m21c[0m>
   818fc:	91000929 	[38;5;142madd[0m	[38;5;27mx9[0m, [38;5;27mx9[0m, [38;5;134m#0x2[0m
   81900:	331a116a 	[38;5;142mbfi[0m	[38;5;27mw10[0m, [38;5;27mw11[0m, [38;5;134m#6[0m, [38;5;134m#5[0m
   81904:	7100295f 	[38;5;142mcmp[0m	[38;5;27mw10[0m, [38;5;134m#0xa[0m
   81908:	540000c1 	[38;5;142mb.ne[0m	[38;5;134m81920[0m <[38;5;40mmain[0m[38;5;134m+0x[0m[38;5;134m208[0m>[38;5;250m  // b.any[0m
   8190c:	1400000a 	[38;5;142mb[0m	[38;5;134m81934[0m <[38;5;40mmain[0m[38;5;134m+0x[0m[38;5;134m21c[0m>
   81910:	91000d29 	[38;5;142madd[0m	[38;5;27mx9[0m, [38;5;27mx9[0m, [38;5;134m#0x3[0m
   81914:	2a0c314a 	[38;5;142morr[0m	[38;5;27mw10[0m, [38;5;27mw10[0m, [38;5;27mw12[0m, [38;5;142mlsl[0m [38;5;134m#12[0m
   81918:	7100295f 	[38;5;142mcmp[0m	[38;5;27mw10[0m, [38;5;134m#0xa[0m
   8191c:	540000c0 	[38;5;142mb.eq[0m	[38;5;134m81934[0m <[38;5;40mmain[0m[38;5;134m+0x[0m[38;5;134m21c[0m>[38;5;250m  // b.none[0m
   81920:	7144415f 	[38;5;142mcmp[0m	[38;5;27mw10[0m, [38;5;134m#0x110[0m, [38;5;142mlsl[0m [38;5;134m#12[0m
   81924:	54000100 	[38;5;142mb.eq[0m	[38;5;134m81944[0m <[38;5;40mmain[0m[38;5;134m+0x[0m[38;5;134m22c[0m>[38;5;250m  // b.none[0m
   81928:	b940026b 	[38;5;142mldr[0m	[38;5;27mw11[0m, [[38;5;27mx19[0m]
   8192c:	362fffeb 	[38;5;142mtbz[0m	[38;5;27mw11[0m, [38;5;134m#5[0m, [38;5;134m81928[0m <[38;5;40mmain[0m[38;5;134m+0x[0m[38;5;134m210[0m>
   81930:	17ffffd5 	[38;5;142mb[0m	[38;5;134m81884[0m <[38;5;40mmain[0m[38;5;134m+0x[0m[38;5;134m16c[0m>
   81934:	b940026a 	[38;5;142mldr[0m	[38;5;27mw10[0m, [[38;5;27mx19[0m]
   81938:	362fffea 	[38;5;142mtbz[0m	[38;5;27mw10[0m, [38;5;134m#5[0m, [38;5;134m81934[0m <[38;5;40mmain[0m[38;5;134m+0x[0m[38;5;134m21c[0m>
   8193c:	5280014a 	[38;5;142mmov[0m	[38;5;27mw10[0m, [38;5;134m#0xa                   [0m[38;5;250m	// #10[0m
   81940:	17ffffd1 	[38;5;142mb[0m	[38;5;134m81884[0m <[38;5;40mmain[0m[38;5;134m+0x[0m[38;5;134m16c[0m>
   81944:	52964288 	[38;5;142mmov[0m	[38;5;27mw8[0m, [38;5;134m#0xb214                [0m[38;5;250m	// #45588[0m
   81948:	5280004a 	[38;5;142mmov[0m	[38;5;27mw10[0m, [38;5;134m#0x2                   [0m[38;5;250m	// #2[0m
   8194c:	72bfc008 	[38;5;142mmovk[0m	[38;5;27mw8[0m, [38;5;134m#0xfe00[0m, [38;5;142mlsl[0m [38;5;134m#16[0m
   81950:	d503201f 	[38;5;142mnop[0m
   81954:	50001849 	[38;5;142madr[0m	[38;5;27mx9[0m, [38;5;134m81c5e[0m <[38;5;40mmain[0m[38;5;134m+0x[0m[38;5;134m546[0m>
   81958:	b900010a 	[38;5;142mstr[0m	[38;5;27mw10[0m, [[38;5;27mx8[0m]
   8195c:	90000008 	[38;5;142madrp[0m	[38;5;27mx8[0m, [38;5;134m81000[0m <[38;5;40mirq_invalid_el1t[0m[38;5;134m+0x[0m[38;5;134m28[0m>
   81960:	91321508 	[38;5;142madd[0m	[38;5;27mx8[0m, [38;5;27mx8[0m, [38;5;134m#0xc85[0m
   81964:	14000004 	[38;5;142mb[0m	[38;5;134m81974[0m <[38;5;40mmain[0m[38;5;134m+0x[0m[38;5;134m25c[0m>
   81968:	eb08013f 	[38;5;142mcmp[0m	[38;5;27mx9[0m, [38;5;27mx8[0m
   8196c:	b81ec26a 	[38;5;142mstur[0m	[38;5;27mw10[0m, [[38;5;27mx19[0m, [38;5;134m#-20[0m]
   81970:	540005c0 	[38;5;142mb.eq[0m	[38;5;134m81a28[0m <[38;5;40mmain[0m[38;5;134m+0x[0m[38;5;134m310[0m>[38;5;250m  // b.none[0m
   81974:	aa0903ea 	[38;5;142mmov[0m	[38;5;27mx10[0m, [38;5;27mx9[0m
   81978:	38c0154c 	[38;5;142mldrsb[0m	[38;5;27mw12[0m, [[38;5;27mx10[0m], [38;5;134m#1[0m
   8197c:	12001d8b 	[38;5;142mand[0m	[38;5;27mw11[0m, [38;5;27mw12[0m, [38;5;134m#0xff[0m
   81980:	37f800cc 	[38;5;142mtbnz[0m	[38;5;27mw12[0m, [38;5;134m#31[0m, [38;5;134m81998[0m <[38;5;40mmain[0m[38;5;134m+0x[0m[38;5;134m280[0m>
   81984:	aa0a03e9 	[38;5;142mmov[0m	[38;5;27mx9[0m, [38;5;27mx10[0m
   81988:	2a0b03ea 	[38;5;142mmov[0m	[38;5;27mw10[0m, [38;5;27mw11[0m
   8198c:	7100297f 	[38;5;142mcmp[0m	[38;5;27mw11[0m, [38;5;134m#0xa[0m
   81990:	540003a1 	[38;5;142mb.ne[0m	[38;5;134m81a04[0m <[38;5;40mmain[0m[38;5;134m+0x[0m[38;5;134m2ec[0m>[38;5;250m  // b.any[0m
   81994:	14000021 	[38;5;142mb[0m	[38;5;134m81a18[0m <[38;5;40mmain[0m[38;5;134m+0x[0m[38;5;134m300[0m>
   81998:	3940052a 	[38;5;142mldrb[0m	[38;5;27mw10[0m, [[38;5;27mx9[0m, [38;5;134m#1[0m]
   8199c:	71037d7f 	[38;5;142mcmp[0m	[38;5;27mw11[0m, [38;5;134m#0xdf[0m
   819a0:	1200154a 	[38;5;142mand[0m	[38;5;27mw10[0m, [38;5;27mw10[0m, [38;5;134m#0x3f[0m
   819a4:	540001e9 	[38;5;142mb.ls[0m	[38;5;134m819e0[0m <[38;5;40mmain[0m[38;5;134m+0x[0m[38;5;134m2c8[0m>[38;5;250m  // b.plast[0m
   819a8:	3940092c 	[38;5;142mldrb[0m	[38;5;27mw12[0m, [[38;5;27mx9[0m, [38;5;134m#2[0m]
   819ac:	7103c17f 	[38;5;142mcmp[0m	[38;5;27mw11[0m, [38;5;134m#0xf0[0m
   819b0:	1200158d 	[38;5;142mand[0m	[38;5;27mw13[0m, [38;5;27mw12[0m, [38;5;134m#0x3f[0m
   819b4:	1200116c 	[38;5;142mand[0m	[38;5;27mw12[0m, [38;5;27mw11[0m, [38;5;134m#0x1f[0m
   819b8:	2a0a19aa 	[38;5;142morr[0m	[38;5;27mw10[0m, [38;5;27mw13[0m, [38;5;27mw10[0m, [38;5;142mlsl[0m [38;5;134m#6[0m
   819bc:	540001c3 	[38;5;142mb.cc[0m	[38;5;134m819f4[0m <[38;5;40mmain[0m[38;5;134m+0x[0m[38;5;134m2dc[0m>[38;5;250m  // b.lo[0m[38;5;250m, b.ul[0m[38;5;250m, b.last[0m
   819c0:	39400d2b 	[38;5;142mldrb[0m	[38;5;27mw11[0m, [[38;5;27mx9[0m, [38;5;134m#3[0m]
   819c4:	91001129 	[38;5;142madd[0m	[38;5;27mx9[0m, [38;5;27mx9[0m, [38;5;134m#0x4[0m
   819c8:	1200156b 	[38;5;142mand[0m	[38;5;27mw11[0m, [38;5;27mw11[0m, [38;5;134m#0x3f[0m
   819cc:	2a0a196a 	[38;5;142morr[0m	[38;5;27mw10[0m, [38;5;27mw11[0m, [38;5;27mw10[0m, [38;5;142mlsl[0m [38;5;134m#6[0m
   819d0:	330e098a 	[38;5;142mbfi[0m	[38;5;27mw10[0m, [38;5;27mw12[0m, [38;5;134m#18[0m, [38;5;134m#3[0m
   819d4:	7100295f 	[38;5;142mcmp[0m	[38;5;27mw10[0m, [38;5;134m#0xa[0m
   819d8:	54000161 	[38;5;142mb.ne[0m	[38;5;134m81a04[0m <[38;5;40mmain[0m[38;5;134m+0x[0m[38;5;134m2ec[0m>[38;5;250m  // b.any[0m
   819dc:	1400000f 	[38;5;142mb[0m	[38;5;134m81a18[0m <[38;5;40mmain[0m[38;5;134m+0x[0m[38;5;134m300[0m>
   819e0:	91000929 	[38;5;142madd[0m	[38;5;27mx9[0m, [38;5;27mx9[0m, [38;5;134m#0x2[0m
   819e4:	331a116a 	[38;5;142mbfi[0m	[38;5;27mw10[0m, [38;5;27mw11[0m, [38;5;134m#6[0m, [38;5;134m#5[0m
   819e8:	7100295f 	[38;5;142mcmp[0m	[38;5;27mw10[0m, [38;5;134m#0xa[0m
   819ec:	540000c1 	[38;5;142mb.ne[0m	[38;5;134m81a04[0m <[38;5;40mmain[0m[38;5;134m+0x[0m[38;5;134m2ec[0m>[38;5;250m  // b.any[0m
   819f0:	1400000a 	[38;5;142mb[0m	[38;5;134m81a18[0m <[38;5;40mmain[0m[38;5;134m+0x[0m[38;5;134m300[0m>
   819f4:	91000d29 	[38;5;142madd[0m	[38;5;27mx9[0m, [38;5;27mx9[0m, [38;5;134m#0x3[0m
   819f8:	2a0c314a 	[38;5;142morr[0m	[38;5;27mw10[0m, [38;5;27mw10[0m, [38;5;27mw12[0m, [38;5;142mlsl[0m [38;5;134m#12[0m
   819fc:	7100295f 	[38;5;142mcmp[0m	[38;5;27mw10[0m, [38;5;134m#0xa[0m
   81a00:	540000c0 	[38;5;142mb.eq[0m	[38;5;134m81a18[0m <[38;5;40mmain[0m[38;5;134m+0x[0m[38;5;134m300[0m>[38;5;250m  // b.none[0m
   81a04:	7144415f 	[38;5;142mcmp[0m	[38;5;27mw10[0m, [38;5;134m#0x110[0m, [38;5;142mlsl[0m [38;5;134m#12[0m
   81a08:	54000100 	[38;5;142mb.eq[0m	[38;5;134m81a28[0m <[38;5;40mmain[0m[38;5;134m+0x[0m[38;5;134m310[0m>[38;5;250m  // b.none[0m
   81a0c:	b940026b 	[38;5;142mldr[0m	[38;5;27mw11[0m, [[38;5;27mx19[0m]
   81a10:	362fffeb 	[38;5;142mtbz[0m	[38;5;27mw11[0m, [38;5;134m#5[0m, [38;5;134m81a0c[0m <[38;5;40mmain[0m[38;5;134m+0x[0m[38;5;134m2f4[0m>
   81a14:	17ffffd5 	[38;5;142mb[0m	[38;5;134m81968[0m <[38;5;40mmain[0m[38;5;134m+0x[0m[38;5;134m250[0m>
   81a18:	b940026a 	[38;5;142mldr[0m	[38;5;27mw10[0m, [[38;5;27mx19[0m]
   81a1c:	362fffea 	[38;5;142mtbz[0m	[38;5;27mw10[0m, [38;5;134m#5[0m, [38;5;134m81a18[0m <[38;5;40mmain[0m[38;5;134m+0x[0m[38;5;134m300[0m>
   81a20:	5280014a 	[38;5;142mmov[0m	[38;5;27mw10[0m, [38;5;134m#0xa                   [0m[38;5;250m	// #10[0m
   81a24:	17ffffd1 	[38;5;142mb[0m	[38;5;134m81968[0m <[38;5;40mmain[0m[38;5;134m+0x[0m[38;5;134m250[0m>
   81a28:	97fff9ac 	[38;5;142mbl[0m	[38;5;134m800d8[0m <[38;5;40mirq_enable[0m>
   81a2c:	d503201f 	[38;5;142mnop[0m
   81a30:	300012a9 	[38;5;142madr[0m	[38;5;27mx9[0m, [38;5;134m81c85[0m <[38;5;40mmain[0m[38;5;134m+0x[0m[38;5;134m56d[0m>
   81a34:	90000008 	[38;5;142madrp[0m	[38;5;27mx8[0m, [38;5;134m81000[0m <[38;5;40mirq_invalid_el1t[0m[38;5;134m+0x[0m[38;5;134m28[0m>
   81a38:	91326d08 	[38;5;142madd[0m	[38;5;27mx8[0m, [38;5;27mx8[0m, [38;5;134m#0xc9b[0m
   81a3c:	14000004 	[38;5;142mb[0m	[38;5;134m81a4c[0m <[38;5;40mmain[0m[38;5;134m+0x[0m[38;5;134m334[0m>
   81a40:	eb08013f 	[38;5;142mcmp[0m	[38;5;27mx9[0m, [38;5;27mx8[0m
   81a44:	b81ec26a 	[38;5;142mstur[0m	[38;5;27mw10[0m, [[38;5;27mx19[0m, [38;5;134m#-20[0m]
   81a48:	540005c0 	[38;5;142mb.eq[0m	[38;5;134m81b00[0m <[38;5;40mmain[0m[38;5;134m+0x[0m[38;5;134m3e8[0m>[38;5;250m  // b.none[0m
   81a4c:	aa0903ea 	[38;5;142mmov[0m	[38;5;27mx10[0m, [38;5;27mx9[0m
   81a50:	38c0154c 	[38;5;142mldrsb[0m	[38;5;27mw12[0m, [[38;5;27mx10[0m], [38;5;134m#1[0m
   81a54:	12001d8b 	[38;5;142mand[0m	[38;5;27mw11[0m, [38;5;27mw12[0m, [38;5;134m#0xff[0m
   81a58:	37f800cc 	[38;5;142mtbnz[0m	[38;5;27mw12[0m, [38;5;134m#31[0m, [38;5;134m81a70[0m <[38;5;40mmain[0m[38;5;134m+0x[0m[38;5;134m358[0m>
   81a5c:	aa0a03e9 	[38;5;142mmov[0m	[38;5;27mx9[0m, [38;5;27mx10[0m
   81a60:	2a0b03ea 	[38;5;142mmov[0m	[38;5;27mw10[0m, [38;5;27mw11[0m
   81a64:	7100297f 	[38;5;142mcmp[0m	[38;5;27mw11[0m, [38;5;134m#0xa[0m
   81a68:	540003a1 	[38;5;142mb.ne[0m	[38;5;134m81adc[0m <[38;5;40mmain[0m[38;5;134m+0x[0m[38;5;134m3c4[0m>[38;5;250m  // b.any[0m
   81a6c:	14000021 	[38;5;142mb[0m	[38;5;134m81af0[0m <[38;5;40mmain[0m[38;5;134m+0x[0m[38;5;134m3d8[0m>
   81a70:	3940052a 	[38;5;142mldrb[0m	[38;5;27mw10[0m, [[38;5;27mx9[0m, [38;5;134m#1[0m]
   81a74:	71037d7f 	[38;5;142mcmp[0m	[38;5;27mw11[0m, [38;5;134m#0xdf[0m
   81a78:	1200154a 	[38;5;142mand[0m	[38;5;27mw10[0m, [38;5;27mw10[0m, [38;5;134m#0x3f[0m
   81a7c:	540001e9 	[38;5;142mb.ls[0m	[38;5;134m81ab8[0m <[38;5;40mmain[0m[38;5;134m+0x[0m[38;5;134m3a0[0m>[38;5;250m  // b.plast[0m
   81a80:	3940092c 	[38;5;142mldrb[0m	[38;5;27mw12[0m, [[38;5;27mx9[0m, [38;5;134m#2[0m]
   81a84:	7103c17f 	[38;5;142mcmp[0m	[38;5;27mw11[0m, [38;5;134m#0xf0[0m
   81a88:	1200158d 	[38;5;142mand[0m	[38;5;27mw13[0m, [38;5;27mw12[0m, [38;5;134m#0x3f[0m
   81a8c:	1200116c 	[38;5;142mand[0m	[38;5;27mw12[0m, [38;5;27mw11[0m, [38;5;134m#0x1f[0m
   81a90:	2a0a19aa 	[38;5;142morr[0m	[38;5;27mw10[0m, [38;5;27mw13[0m, [38;5;27mw10[0m, [38;5;142mlsl[0m [38;5;134m#6[0m
   81a94:	540001c3 	[38;5;142mb.cc[0m	[38;5;134m81acc[0m <[38;5;40mmain[0m[38;5;134m+0x[0m[38;5;134m3b4[0m>[38;5;250m  // b.lo[0m[38;5;250m, b.ul[0m[38;5;250m, b.last[0m
   81a98:	39400d2b 	[38;5;142mldrb[0m	[38;5;27mw11[0m, [[38;5;27mx9[0m, [38;5;134m#3[0m]
   81a9c:	91001129 	[38;5;142madd[0m	[38;5;27mx9[0m, [38;5;27mx9[0m, [38;5;134m#0x4[0m
   81aa0:	1200156b 	[38;5;142mand[0m	[38;5;27mw11[0m, [38;5;27mw11[0m, [38;5;134m#0x3f[0m
   81aa4:	2a0a196a 	[38;5;142morr[0m	[38;5;27mw10[0m, [38;5;27mw11[0m, [38;5;27mw10[0m, [38;5;142mlsl[0m [38;5;134m#6[0m
   81aa8:	330e098a 	[38;5;142mbfi[0m	[38;5;27mw10[0m, [38;5;27mw12[0m, [38;5;134m#18[0m, [38;5;134m#3[0m
   81aac:	7100295f 	[38;5;142mcmp[0m	[38;5;27mw10[0m, [38;5;134m#0xa[0m
   81ab0:	54000161 	[38;5;142mb.ne[0m	[38;5;134m81adc[0m <[38;5;40mmain[0m[38;5;134m+0x[0m[38;5;134m3c4[0m>[38;5;250m  // b.any[0m
   81ab4:	1400000f 	[38;5;142mb[0m	[38;5;134m81af0[0m <[38;5;40mmain[0m[38;5;134m+0x[0m[38;5;134m3d8[0m>
   81ab8:	91000929 	[38;5;142madd[0m	[38;5;27mx9[0m, [38;5;27mx9[0m, [38;5;134m#0x2[0m
   81abc:	331a116a 	[38;5;142mbfi[0m	[38;5;27mw10[0m, [38;5;27mw11[0m, [38;5;134m#6[0m, [38;5;134m#5[0m
   81ac0:	7100295f 	[38;5;142mcmp[0m	[38;5;27mw10[0m, [38;5;134m#0xa[0m
   81ac4:	540000c1 	[38;5;142mb.ne[0m	[38;5;134m81adc[0m <[38;5;40mmain[0m[38;5;134m+0x[0m[38;5;134m3c4[0m>[38;5;250m  // b.any[0m
   81ac8:	1400000a 	[38;5;142mb[0m	[38;5;134m81af0[0m <[38;5;40mmain[0m[38;5;134m+0x[0m[38;5;134m3d8[0m>
   81acc:	91000d29 	[38;5;142madd[0m	[38;5;27mx9[0m, [38;5;27mx9[0m, [38;5;134m#0x3[0m
   81ad0:	2a0c314a 	[38;5;142morr[0m	[38;5;27mw10[0m, [38;5;27mw10[0m, [38;5;27mw12[0m, [38;5;142mlsl[0m [38;5;134m#12[0m
   81ad4:	7100295f 	[38;5;142mcmp[0m	[38;5;27mw10[0m, [38;5;134m#0xa[0m
   81ad8:	540000c0 	[38;5;142mb.eq[0m	[38;5;134m81af0[0m <[38;5;40mmain[0m[38;5;134m+0x[0m[38;5;134m3d8[0m>[38;5;250m  // b.none[0m
   81adc:	7144415f 	[38;5;142mcmp[0m	[38;5;27mw10[0m, [38;5;134m#0x110[0m, [38;5;142mlsl[0m [38;5;134m#12[0m
   81ae0:	54000100 	[38;5;142mb.eq[0m	[38;5;134m81b00[0m <[38;5;40mmain[0m[38;5;134m+0x[0m[38;5;134m3e8[0m>[38;5;250m  // b.none[0m
   81ae4:	b940026b 	[38;5;142mldr[0m	[38;5;27mw11[0m, [[38;5;27mx19[0m]
   81ae8:	362fffeb 	[38;5;142mtbz[0m	[38;5;27mw11[0m, [38;5;134m#5[0m, [38;5;134m81ae4[0m <[38;5;40mmain[0m[38;5;134m+0x[0m[38;5;134m3cc[0m>
   81aec:	17ffffd5 	[38;5;142mb[0m	[38;5;134m81a40[0m <[38;5;40mmain[0m[38;5;134m+0x[0m[38;5;134m328[0m>
   81af0:	b940026a 	[38;5;142mldr[0m	[38;5;27mw10[0m, [[38;5;27mx19[0m]
   81af4:	362fffea 	[38;5;142mtbz[0m	[38;5;27mw10[0m, [38;5;134m#5[0m, [38;5;134m81af0[0m <[38;5;40mmain[0m[38;5;134m+0x[0m[38;5;134m3d8[0m>
   81af8:	5280014a 	[38;5;142mmov[0m	[38;5;27mw10[0m, [38;5;134m#0xa                   [0m[38;5;250m	// #10[0m
   81afc:	17ffffd1 	[38;5;142mb[0m	[38;5;134m81a40[0m <[38;5;40mmain[0m[38;5;134m+0x[0m[38;5;134m328[0m>
   81b00:	52860088 	[38;5;142mmov[0m	[38;5;27mw8[0m, [38;5;134m#0x3004                [0m[38;5;250m	// #12292[0m
   81b04:	9000000a 	[38;5;142madrp[0m	[38;5;27mx10[0m, [38;5;134m81000[0m <[38;5;40mirq_invalid_el1t[0m[38;5;134m+0x[0m[38;5;134m28[0m>
   81b08:	72bfc008 	[38;5;142mmovk[0m	[38;5;27mw8[0m, [38;5;134m#0xfe00[0m, [38;5;142mlsl[0m [38;5;134m#16[0m
   81b0c:	b9400109 	[38;5;142mldr[0m	[38;5;27mw9[0m, [[38;5;27mx8[0m]
   81b10:	1100052b 	[38;5;142madd[0m	[38;5;27mw11[0m, [38;5;27mw9[0m, [38;5;134m#0x1[0m
   81b14:	d503201f 	[38;5;142mnop[0m
   81b18:	70000c09 	[38;5;142madr[0m	[38;5;27mx9[0m, [38;5;134m81c9b[0m <[38;5;40mmain[0m[38;5;134m+0x[0m[38;5;134m583[0m>
   81b1c:	b90cc14b 	[38;5;142mstr[0m	[38;5;27mw11[0m, [[38;5;27mx10[0m, [38;5;134m#3264[0m]
   81b20:	b9000d0b 	[38;5;142mstr[0m	[38;5;27mw11[0m, [[38;5;27mx8[0m, [38;5;134m#12[0m]
   81b24:	90000008 	[38;5;142madrp[0m	[38;5;27mx8[0m, [38;5;134m81000[0m <[38;5;40mirq_invalid_el1t[0m[38;5;134m+0x[0m[38;5;134m28[0m>
   81b28:	9132c508 	[38;5;142madd[0m	[38;5;27mx8[0m, [38;5;27mx8[0m, [38;5;134m#0xcb1[0m
   81b2c:	14000004 	[38;5;142mb[0m	[38;5;134m81b3c[0m <[38;5;40mmain[0m[38;5;134m+0x[0m[38;5;134m424[0m>
   81b30:	eb08013f 	[38;5;142mcmp[0m	[38;5;27mx9[0m, [38;5;27mx8[0m
   81b34:	b81ec26a 	[38;5;142mstur[0m	[38;5;27mw10[0m, [[38;5;27mx19[0m, [38;5;134m#-20[0m]
   81b38:	540005c0 	[38;5;142mb.eq[0m	[38;5;134m81bf0[0m <[38;5;40mmain[0m[38;5;134m+0x[0m[38;5;134m4d8[0m>[38;5;250m  // b.none[0m
   81b3c:	aa0903ea 	[38;5;142mmov[0m	[38;5;27mx10[0m, [38;5;27mx9[0m
   81b40:	38c0154c 	[38;5;142mldrsb[0m	[38;5;27mw12[0m, [[38;5;27mx10[0m], [38;5;134m#1[0m
   81b44:	12001d8b 	[38;5;142mand[0m	[38;5;27mw11[0m, [38;5;27mw12[0m, [38;5;134m#0xff[0m
   81b48:	37f800cc 	[38;5;142mtbnz[0m	[38;5;27mw12[0m, [38;5;134m#31[0m, [38;5;134m81b60[0m <[38;5;40mmain[0m[38;5;134m+0x[0m[38;5;134m448[0m>
   81b4c:	aa0a03e9 	[38;5;142mmov[0m	[38;5;27mx9[0m, [38;5;27mx10[0m
   81b50:	2a0b03ea 	[38;5;142mmov[0m	[38;5;27mw10[0m, [38;5;27mw11[0m
   81b54:	7100297f 	[38;5;142mcmp[0m	[38;5;27mw11[0m, [38;5;134m#0xa[0m
   81b58:	540003a1 	[38;5;142mb.ne[0m	[38;5;134m81bcc[0m <[38;5;40mmain[0m[38;5;134m+0x[0m[38;5;134m4b4[0m>[38;5;250m  // b.any[0m
   81b5c:	14000021 	[38;5;142mb[0m	[38;5;134m81be0[0m <[38;5;40mmain[0m[38;5;134m+0x[0m[38;5;134m4c8[0m>
   81b60:	3940052a 	[38;5;142mldrb[0m	[38;5;27mw10[0m, [[38;5;27mx9[0m, [38;5;134m#1[0m]
   81b64:	71037d7f 	[38;5;142mcmp[0m	[38;5;27mw11[0m, [38;5;134m#0xdf[0m
   81b68:	1200154a 	[38;5;142mand[0m	[38;5;27mw10[0m, [38;5;27mw10[0m, [38;5;134m#0x3f[0m
   81b6c:	540001e9 	[38;5;142mb.ls[0m	[38;5;134m81ba8[0m <[38;5;40mmain[0m[38;5;134m+0x[0m[38;5;134m490[0m>[38;5;250m  // b.plast[0m
   81b70:	3940092c 	[38;5;142mldrb[0m	[38;5;27mw12[0m, [[38;5;27mx9[0m, [38;5;134m#2[0m]
   81b74:	7103c17f 	[38;5;142mcmp[0m	[38;5;27mw11[0m, [38;5;134m#0xf0[0m
   81b78:	1200158d 	[38;5;142mand[0m	[38;5;27mw13[0m, [38;5;27mw12[0m, [38;5;134m#0x3f[0m
   81b7c:	1200116c 	[38;5;142mand[0m	[38;5;27mw12[0m, [38;5;27mw11[0m, [38;5;134m#0x1f[0m
   81b80:	2a0a19aa 	[38;5;142morr[0m	[38;5;27mw10[0m, [38;5;27mw13[0m, [38;5;27mw10[0m, [38;5;142mlsl[0m [38;5;134m#6[0m
   81b84:	540001c3 	[38;5;142mb.cc[0m	[38;5;134m81bbc[0m <[38;5;40mmain[0m[38;5;134m+0x[0m[38;5;134m4a4[0m>[38;5;250m  // b.lo[0m[38;5;250m, b.ul[0m[38;5;250m, b.last[0m
   81b88:	39400d2b 	[38;5;142mldrb[0m	[38;5;27mw11[0m, [[38;5;27mx9[0m, [38;5;134m#3[0m]
   81b8c:	91001129 	[38;5;142madd[0m	[38;5;27mx9[0m, [38;5;27mx9[0m, [38;5;134m#0x4[0m
   81b90:	1200156b 	[38;5;142mand[0m	[38;5;27mw11[0m, [38;5;27mw11[0m, [38;5;134m#0x3f[0m
   81b94:	2a0a196a 	[38;5;142morr[0m	[38;5;27mw10[0m, [38;5;27mw11[0m, [38;5;27mw10[0m, [38;5;142mlsl[0m [38;5;134m#6[0m
   81b98:	330e098a 	[38;5;142mbfi[0m	[38;5;27mw10[0m, [38;5;27mw12[0m, [38;5;134m#18[0m, [38;5;134m#3[0m
   81b9c:	7100295f 	[38;5;142mcmp[0m	[38;5;27mw10[0m, [38;5;134m#0xa[0m
   81ba0:	54000161 	[38;5;142mb.ne[0m	[38;5;134m81bcc[0m <[38;5;40mmain[0m[38;5;134m+0x[0m[38;5;134m4b4[0m>[38;5;250m  // b.any[0m
   81ba4:	1400000f 	[38;5;142mb[0m	[38;5;134m81be0[0m <[38;5;40mmain[0m[38;5;134m+0x[0m[38;5;134m4c8[0m>
   81ba8:	91000929 	[38;5;142madd[0m	[38;5;27mx9[0m, [38;5;27mx9[0m, [38;5;134m#0x2[0m
   81bac:	331a116a 	[38;5;142mbfi[0m	[38;5;27mw10[0m, [38;5;27mw11[0m, [38;5;134m#6[0m, [38;5;134m#5[0m
   81bb0:	7100295f 	[38;5;142mcmp[0m	[38;5;27mw10[0m, [38;5;134m#0xa[0m
   81bb4:	540000c1 	[38;5;142mb.ne[0m	[38;5;134m81bcc[0m <[38;5;40mmain[0m[38;5;134m+0x[0m[38;5;134m4b4[0m>[38;5;250m  // b.any[0m
   81bb8:	1400000a 	[38;5;142mb[0m	[38;5;134m81be0[0m <[38;5;40mmain[0m[38;5;134m+0x[0m[38;5;134m4c8[0m>
   81bbc:	91000d29 	[38;5;142madd[0m	[38;5;27mx9[0m, [38;5;27mx9[0m, [38;5;134m#0x3[0m
   81bc0:	2a0c314a 	[38;5;142morr[0m	[38;5;27mw10[0m, [38;5;27mw10[0m, [38;5;27mw12[0m, [38;5;142mlsl[0m [38;5;134m#12[0m
   81bc4:	7100295f 	[38;5;142mcmp[0m	[38;5;27mw10[0m, [38;5;134m#0xa[0m
   81bc8:	540000c0 	[38;5;142mb.eq[0m	[38;5;134m81be0[0m <[38;5;40mmain[0m[38;5;134m+0x[0m[38;5;134m4c8[0m>[38;5;250m  // b.none[0m
   81bcc:	7144415f 	[38;5;142mcmp[0m	[38;5;27mw10[0m, [38;5;134m#0x110[0m, [38;5;142mlsl[0m [38;5;134m#12[0m
   81bd0:	54000100 	[38;5;142mb.eq[0m	[38;5;134m81bf0[0m <[38;5;40mmain[0m[38;5;134m+0x[0m[38;5;134m4d8[0m>[38;5;250m  // b.none[0m
   81bd4:	b940026b 	[38;5;142mldr[0m	[38;5;27mw11[0m, [[38;5;27mx19[0m]
   81bd8:	362fffeb 	[38;5;142mtbz[0m	[38;5;27mw11[0m, [38;5;134m#5[0m, [38;5;134m81bd4[0m <[38;5;40mmain[0m[38;5;134m+0x[0m[38;5;134m4bc[0m>
   81bdc:	17ffffd5 	[38;5;142mb[0m	[38;5;134m81b30[0m <[38;5;40mmain[0m[38;5;134m+0x[0m[38;5;134m418[0m>
   81be0:	b940026a 	[38;5;142mldr[0m	[38;5;27mw10[0m, [[38;5;27mx19[0m]
   81be4:	362fffea 	[38;5;142mtbz[0m	[38;5;27mw10[0m, [38;5;134m#5[0m, [38;5;134m81be0[0m <[38;5;40mmain[0m[38;5;134m+0x[0m[38;5;134m4c8[0m>
   81be8:	5280014a 	[38;5;142mmov[0m	[38;5;27mw10[0m, [38;5;134m#0xa                   [0m[38;5;250m	// #10[0m
   81bec:	17ffffd1 	[38;5;142mb[0m	[38;5;134m81b30[0m <[38;5;40mmain[0m[38;5;134m+0x[0m[38;5;134m418[0m>
   81bf0:	90000008 	[38;5;142madrp[0m	[38;5;27mx8[0m, [38;5;134m81000[0m <[38;5;40mirq_invalid_el1t[0m[38;5;134m+0x[0m[38;5;134m28[0m>
   81bf4:	b90cc51f 	[38;5;142mstr[0m	[38;5;27mwzr[0m, [[38;5;27mx8[0m, [38;5;134m#3268[0m]
   81bf8:	14000000 	[38;5;142mb[0m	[38;5;134m81bf8[0m <[38;5;40mmain[0m[38;5;134m+0x[0m[38;5;134m4e0[0m>
